(dp0
(S'smallspamham/ham/'
p1
S'now,'
p2
tp3
F0.00047261368825425625
s(g1
S'http://www.deepeddy.com/~cwg/'
p4
tp5
F0.0006423602445522268
s(g1
S'___check<br>'
p6
tp7
F-0.0005567042822477318
s(S'smallspamham/spam/'
p8
S'town'
p9
tp10
F0.0005603166503176598
s(g1
S'two'
p11
tp12
F-0.001120633300746591
s(g1
S'is'
p13
tp14
F-0.0111408991565356
s(g8
S'card)'
p15
tp16
F0.003351062798881549
s(g8
S'outdoor'
p17
tp18
F0.0005603166503176598
s(g8
S'aids'
p19
tp20
F0.001113408564385992
s(g1
S'g7lcxvz24654'
p21
tp22
F0.000512492694989887
s(g8
S'+0100'
p23
tp24
F0.0029437721724269606
s(g1
S'}'
p25
tp26
F0.00047261368825425625
s(g8
S'first,'
p27
tp28
F-0.0004726136890293556
s(g8
S'meaning'
p29
tp30
F0.0012382686641795187
s(g8
S'cur'
p31
tp32
F-0.0006822392504639519
s(g1
S'show"'
p33
tp34
F0.0009452273765449016
s(g8
S'attract'
p35
tp36
F0.0005567042822851042
s(g8
S'preference'
p37
tp38
F-0.0004726136890293556
s(g8
S'manage'
p39
tp40
F0.0005567042822851042
s(g1
S'snack,'
p41
tp42
F-0.0005567042822477318
s(g1
S'progress'
p43
tp44
F-0.0005567042822477318
s(g1
S'***take'
p45
tp46
F-0.0005567042822477318
s(g1
S'href="mailto:ultratrim2002dontsend@yahoo.com">to'
p47
tp48
F-0.0005567042822477318
s(g1
S'greetings!'
p49
tp50
F-0.0012382686643746502
s(g8
S'interest'
p51
tp52
F0.0012382686641795187
s(g1
S'metabolism'
p53
tp54
F-0.0005567042822477318
s(g8
S'keep'
p55
tp56
F-0.0004726136890293556
s(g1
S'(8.12.5/8.12.5)'
p57
tp58
F0.0011056681677741227
s(g1
S'200'
p59
tp60
F8.565596178734289e-05
s(g1
S'prefer'
p61
tp62
F0.00047261368825425625
s(g8
S'general.'
p63
tp64
F-0.0006822392504639519
s(g8
S'=rd0t'
p65
tp66
F-0.0011056681679472657
s(g8
S'h,'
p67
tp68
F0.0016701128458752417
s(g1
S'good,'
p69
tp70
F-0.0005567042822477318
s(g1
S'iconspool'
p71
tp72
F0.00047261368825425625
s(g8
S'"busycursorinner'
p73
tp74
F-0.0004726136890293556
s(g1
S'number,'
p75
tp76
F0.00047261368825425625
s(g8
S'little'
p77
tp78
F-0.0004726136890293556
s(g8
S'anywhere'
p79
tp80
F-0.0004726136890293556
s(g8
S'volts'
p81
tp82
F0.004482533199850402
s(g1
S'days...'
p83
tp84
F-0.0005567042822477318
s(g1
S'color="red">'
p85
tp86
F-0.0005603166503732955
s(g1
S'city'
p87
tp88
F-0.0005603166503732955
s(g8
S'$30.00'
p89
tp90
F0.0005603166503176598
s(g8
S'-----------------------------------------------------------'
p91
tp92
F0.0012382686641795187
s(g1
S'far'
p93
tp94
F0.0011056681677741227
s(g1
S'changes.'
p95
tp96
F0.00047261368825425625
s(g8
S'(937)'
p97
tp98
F0.0005567042822851042
s(g8
S'tv.'
p99
tp100
F0.0005603166503176598
s(g8
S'would'
p101
tp102
F-0.0011247997821316076
s(g1
S'<br>'
p103
tp104
F-0.012804198491508082
s(g1
S'message...)'
p105
tp106
F0.00047261368825425625
s(g8
S'click'
p107
tp108
F0.0017949729457777206
s(g8
S're:'
p109
tp110
F-0.0022605211074467595
s(g1
S'useful,'
p111
tp112
F0.00047261368825425625
s(g8
S'ilug-admin@linux.ie'
p113
tp114
F0.003714805993052755
s(g1
S'</h3>'
p115
tp116
F-0.0005603166503732955
s(g8
S'11:17:52'
p117
tp118
F3.9879006244336607e-05
s(g1
S'network);'
p119
tp120
F0.0006423602445522268
s(g1
S'--==_exmh_-196335410p'
p121
tp122
F0.0013644785013920164
s(g1
S'to:'
p123
tp124
F-9.476849074704935e-05
s(g8
S'send'
p125
tp126
F0.003593558259934821
s(g8
S'<p>'
p127
tp128
F0.015128549635125638
s(g8
S'landed'
p129
tp130
F0.0012382686641795187
s(g8
S'g7lfnsz31154'
p131
tp132
F-0.0011056681679472657
s(g8
S'(envelope-sender'
p133
tp134
F-0.0012847204884454807
s(g8
S'order'
p135
tp136
F0.0055778799248756596
s(g8
S'crimes'
p137
tp138
F0.0005603166503176598
s(g1
S"you'll"
p139
tp140
F-0.0012382686643746502
s(g1
S'safe,'
p141
tp142
F-0.0011134085644977764
s(g1
S'-sequence'
p143
tp144
F0.00047261368825425625
s(g8
S'passed'
p145
tp146
F0.0005567042822851042
s(g1
S'once'
p147
tp148
F-0.00029304128829788834
s(g1
S"what's"
p149
tp150
F0.00047261368825425625
s(g1
S'voice/fax!!!'
p151
tp152
F-0.0005567042822477318
s(g8
S'unique?'
p153
tp154
F0.0005567042822851042
s(g1
S'e-maildom'
p155
tp156
F-0.0012382686643746502
s(g8
S'absorption'
p157
tp158
F0.0005567042822851042
s(g8
S'price!'
p159
tp160
F0.0005567042822851042
s(g8
S'hope'
p161
tp162
F-0.0004726136890293556
s(g8
S'0.746999'
p163
tp164
F-0.0006822392504639519
s(g8
S'did'
p165
tp166
F-0.0004726136890293556
s(g1
S'seen'
p167
tp168
F0.0013567381042875275
s(g8
S'mx1.spamassassin.taint.org'
p169
tp170
F-0.0027730138026679906
s(g8
S'ago.'
p171
tp172
F-0.0004726136890293556
s(g1
S'26932'
p173
tp174
F-3.987900642075676e-05
s(g8
S'for<br>'
p175
tp176
F0.0005603166503176598
s(g1
S'online'
p177
tp178
F-0.0024765373287493004
s(g8
S'purchase.<br>'
p179
tp180
F0.0005603166503176598
s(g8
S'email'
p181
tp182
F0.008304137464487986
s(g1
S'inbox.'
p183
tp184
F-0.0024765373287493004
s(g8
S'7106643c34'
p185
tp186
F-0.000512492695274234
s(g8
S'<jm-exmh@jmason.org>;'
p187
tp188
F-0.0022605211074467595
s(g1
S'available.'
p189
tp190
F-0.0005603166503732955
s(g1
S'$args}'
p191
tp192
F0.0018904547527506207
s(g1
S'___the'
p193
tp194
F-0.004482533202973217
s(g1
S'display'
p195
tp196
F0.0014178410663581022
s(g1
S'%9#a9h6jxi|t|8o6t\\v?kgl]q!1v]gtnliutz:3},0"hkpebuu%e,j(:\\iox-p,t7lrr#'
p197
tp198
F0.0011056681677741227
s(g8
S'while'
p199
tp200
F-0.0015397636669700638
s(g8
S'many'
p201
tp202
F0.0012382686641795187
s(g8
S'"pseq"'
p203
tp204
F-0.0017879074184001121
s(g1
S'"switch'
p205
tp206
F0.00047261368825425625
s(g8
S'"mark'
p207
tp208
F-0.0004726136890293556
s(g1
S'engineer'
p209
tp210
F0.0011056681677741227
s(g1
S'os'
p211
tp212
F0.0006822392506960082
s(g8
S'stunmaster'
p213
tp214
F0.002241266601270639
s(g1
S'we'
p215
tp216
F-0.0011170209326218485
s(g1
g81
tp217
F-0.004482533202973217
s(g8
S'completely'
p218
tp219
F0.0005567042822851042
s(g8
S'whether'
p220
tp221
F-0.0006822392504639519
s(g1
S'{exec'
p222
tp223
F0.00047261368825425625
s(g1
S"nation's"
p224
tp225
F-0.0005603166503732955
s(g1
S'alternative'
p226
tp227
F-0.0012382686643746502
s(g8
S'<1029943066.26919.tmda@deepeddy.vircio.com>'
p228
tp229
F3.9879006244336607e-05
s(g1
S'multipart/signed;'
p230
tp231
F0.0017480284108613404
s(g1
S'a42a7fc01f2;'
p232
tp233
F-0.0012382686643746502
s(g1
S"'pseq'"
p234
tp235
F0.0006822392506960082
s(g8
S'their'
p236
tp237
F0.003242192305304404
s(g1
S'widen'
p238
tp239
F0.00047261368825425625
s(g1
S'08:58:18'
p240
tp241
F-0.00027900641013420545
s(g8
S'+0700."'
p242
tp243
F-0.0011056681679472657
s(g1
g91
tp244
F-0.0012382686643746502
s(g8
S'-list}'
p245
tp246
F-0.0004726136890293556
s(g1
S'(qmail'
p247
tp248
F0.0012847204879531842
s(g8
S'(ist)'
p249
tp250
F-0.0010222524432002575
s(g8
S'22:51:52'
p251
tp252
F-0.0006822392504639519
s(g8
S'<b>bonus'
p253
tp254
F0.0005567042822851042
s(g1
S'unusual'
p255
tp256
F0.00047261368825425625
s(g1
S'<br><br>'
p257
tp258
F-0.02789301200171525
s(g1
S'next'
p259
tp260
F0.00047261368825425625
s(g1
S'problem'
p261
tp262
F-0.0005603166503732955
s(g8
S'watching'
p263
tp264
F-0.0006822392504639519
s(g8
S'low'
p265
tp266
F0.0005567042822851042
s(g1
S'22:50:17'
p267
tp268
F-0.0012382686643746502
s(g1
g127
tp269
F-0.015128549560080452
s(g8
S'site'
p270
tp271
F0.0005603166503176598
s(g8
S'dogma.slashnull.org'
p272
tp273
F9.476848832598665e-05
s(g8
S'fortunes'
p274
tp275
F0.0012382686641795187
s(g8
S'($64.95)<br>'
p276
tp277
F0.0005603166503176598
s(g1
S'melt'
p278
tp279
F-0.0005567042822477318
s(g1
S'stand'
p280
tp281
F0.00047261368825425625
s(g8
S'business'
p282
tp283
F0.0012382686641795187
s(g1
S'pepper'
p284
tp285
F-0.0016809499511218808
s(g8
S'it,'
p286
tp287
F-0.0006822392504639519
s(g8
S'interface,'
p288
tp289
F-0.0004726136890293556
s(g1
S'g7lfhny23313'
p290
tp291
F-3.987900642075676e-05
s(g1
S'shown).'
p292
tp293
F0.00047261368825425625
s(g1
S'are<br>'
p294
tp295
F-0.0005603166503732955
s(g1
S'great'
p296
tp297
F-0.0011170209326218485
s(g1
g157
tp298
F-0.0005567042822477318
s(g1
S'simply'
p299
tp300
F-0.0012382686643746502
s(g8
S'*****bonus'
p301
tp302
F0.0005567042822851042
s(g8
S'accepted.'
p303
tp304
F0.0005603166503176598
s(g1
S'from'
p305
tp306
F0.020227316237681807
s(g8
S'(procedure'
p307
tp308
F-0.008507046402661301
s(g8
S'because'
p309
tp310
F0.0024765373283590375
s(g1
g175
tp311
F-0.0005603166503732955
s(g8
S'$w'
p312
tp313
F-0.0004726136890293556
s(g1
S'digestion'
p314
tp315
F-0.0005567042822477318
s(g8
S'income'
p316
tp317
F0.0012382686641795187
s(g1
S'sequences)'
p318
tp319
F0.0017879074179261993
s(g1
S'dayton,'
p320
tp321
F-0.0011170209326218485
s(g8
S'receive'
p322
tp323
F0.003033241609468969
s(g8
S'phobos'
p324
tp325
F-0.0010222524432002575
s(g1
S'+inbox'
p326
tp327
F0.00047261368825425625
s(g8
S'robert'
p328
tp329
F-0.004008549519564501
s(g1
S'08:34:00'
p330
tp331
F0.000512492694989887
s(g1
S'osmosis).'
p332
tp333
F0.0006822392506960082
s(g1
S'products.'
p334
tp335
F-0.0005603166503732955
s(g8
S'easy'
p336
tp337
F-0.0006822392504639519
s(g8
S'sequences'
p338
tp339
F-0.006041430619767472
s(g1
S'guns'
p340
tp341
F-0.0005603166503732955
s(g8
S'apology.'
p342
tp343
F0.0012382686641795187
s(g8
S'[216.41.166.100])'
p344
tp345
F0.0005567042822851042
s(g8
S'read'
p346
tp347
F0.003208647531640372
s(g1
S'the'
p348
tp349
F-0.021460297941950212
s(g8
S'17:04:20'
p350
tp351
F0.00027769787229649343
s(g8
S'day'
p352
tp353
F0.0016737252138999091
s(g1
S'finding'
p354
tp355
F-0.0005603166503732955
s(g8
S'uses'
p356
tp357
F-0.0006822392504639519
s(g1
S'improved'
p358
tp359
F-0.0005567042822477318
s(g1
S'credit'
p360
tp361
F-0.005585104663103872
s(g8
S"up'coming"
p362
tp363
F0.0005603166503176598
s(g8
S'bound'
p364
tp365
F-0.0004726136890293556
s(g8
S'"folderchange'
p366
tp367
F-0.0004726136890293556
s(g1
g220
tp368
F0.0006822392506960082
s(g8
S'brighter'
p369
tp370
F-0.0004726136890293556
s(g8
g224
tp371
F0.0005603166503176598
s(g8
S'g7lcu1w09629;'
p372
tp373
F-0.000512492695274234
s(g8
S'replac'
p374
tp375
F3.9879006244336607e-05
s(g1
S'technology.'
p376
tp377
F-0.0005603166503732955
s(g8
S'sequence'
p378
tp379
F-0.004619411758026673
s(g8
S'x-authentication-warning:'
p380
tp381
F0.0012382686641795187
s(g1
g249
tp382
F0.0010222524420174996
s(g8
S"didn't"
p383
tp384
F-0.0009452273780587113
s(g1
S'helped'
p385
tp386
F0.0006822392506960082
s(g1
S'750d33f945'
p387
tp388
F0.000512492694989887
s(g1
S'side'
p389
tp390
F-0.0005567042822477318
s(g8
S'shame'
p391
tp392
F0.0012382686641795187
s(g8
S'wall'
p393
tp394
F0.0012382686641795187
s(g8
S'-'
p395
tp396
F-0.0032286153543728494
s(g8
S'might'
p397
tp398
F0.0005603166503176598
s(g8
S'write'
p399
tp400
F0.0011170209329615997
s(g8
S'scientifically'
p401
tp402
F0.0005567042822851042
s(g1
S'deducted'
p403
tp404
F-0.0005567042822477318
s(g1
S'mercury}"'
p405
tp406
F0.00047261368825425625
s(g1
S'(the'
p407
tp408
F-8.409059392236924e-05
s(g8
S'6'
p409
tp410
F0.0024765373283590375
s(g8
g278
tp411
F0.0005567042822851042
s(g8
S'5134943c34'
p412
tp413
F-0.0006822392504639519
s(g1
S'briefly'
p414
tp415
F0.00047261368825425625
s(g8
S'an'
p416
tp417
F0.002564240291276741
s(g1
S'constant'
p418
tp419
F0.00047261368825425625
s(g8
S"there's"
p420
tp421
F-0.0004726136890293556
s(g1
S'[194.125.145.45])'
p422
tp423
F-0.0012382686643746502
s(g1
S'___________________________________________________<br>'
p424
tp425
F-0.0044680837304893
s(g8
S'page'
p426
tp427
F0.002911993877382024
s(g8
S'href="mailto:merchants4all@aol.com">merchants4all@aol.com</a>'
p428
tp429
F0.0011206333006353196
s(g8
S'so'
p430
tp431
F0.00037645701201255205
s(g1
S'mastercard,'
p432
tp433
F-0.0005603166503732955
s(g1
S'worry'
p434
tp435
F-0.0005567042822477318
s(g8
S'forces'
p436
tp437
F0.0005603166503176598
s(g8
S'stop'
p438
tp439
F0.0012382686641795187
s(g1
S'maintainer:'
p440
tp441
F-0.0012382686643746502
s(g8
S'will'
p442
tp443
F0.009149595792481688
s(g1
g301
tp444
F-0.0005567042822477318
s(g1
S'crime'
p445
tp446
F-0.001120633300746591
s(g1
S'counts)'
p447
tp448
F0.00047261368825425625
s(g1
S'multi-level'
p449
tp450
F-0.0024765373287493004
s(g8
g13
tp451
F0.011140899219807437
s(g1
S'<exmh-workers@listman.redhat.com>;'
p452
tp453
F0.002260521105506265
s(g1
g312
tp454
F0.00047261368825425625
s(g8
S'systems'
p455
tp456
F0.00013260049610862185
s(g8
S'hype'
p457
tp458
F0.0012382686641795187
s(g1
S'e0f013f29a;'
p459
tp460
F-3.987900642075676e-05
s(g1
S'batons'
p461
tp462
F-0.0005603166503732955
s(g1
S'check'
p463
tp464
F-0.0033510627978591435
s(g8
S'devices'
p465
tp466
F0.0005603166503176598
s(g8
S'=969s'
p467
tp468
F-0.0006822392504639519
s(g1
S'11:24:03'
p469
tp470
F0.0011056681677741227
s(g1
S'"ftoc_pickmsgs'
p471
tp472
F0.00047261368825425625
s(g8
S'save'
p473
tp474
F0.0005603166503176598
s(g8
S'eye-opening,'
p475
tp476
F0.0012382686641795187
s(g8
S'<cwg-exmh@deepeddy.com>'
p477
tp478
F-0.0011149739332606558
s(g8
S'(maybe'
p479
tp480
F-0.0004726136890293556
s(g8
S'"pickinner"'
p481
tp482
F-0.0004726136890293556
s(g8
S'--==_exmh_31119591p--'
p483
tp484
F-0.0011056681679472657
s(g1
S'width,'
p485
tp486
F0.00047261368825425625
s(g1
S'___2'
p487
tp488
F-0.0005567042822477318
s(g1
g346
tp489
F-0.0032086475344391186
s(g1
S'assisting'
p490
tp491
F-0.0005567042822477318
s(g8
S'<ilug.linux.ie>'
p492
tp493
F0.0012382686641795187
s(g1
S'guessing'
p494
tp495
F0.0006822392506960082
s(g1
S'[64.0.57.142])'
p496
tp497
F-0.0012382686643746502
s(g8
g461
tp498
F0.0005603166503176598
s(g8
S'one'
p499
tp500
F0.0013979961327576474
s(g8
g59
tp501
F-8.565596178486328e-05
s(g1
S'04:46:13'
p502
tp503
F-0.0005603166503732955
s(g1
S'15:17:17'
p504
tp505
F0.0006822392506960082
s(g1
S'subject'
p506
tp507
F-0.001322359258001915
s(g1
S'could'
p508
tp509
F-0.0007656549765917173
s(g1
S'(fits'
p510
tp511
F0.00047261368825425625
s(g8
S'states'
p512
tp513
F0.0005567042822851042
s(g8
S'eating'
p514
tp515
F0.0005567042822851042
s(g8
S'list,'
p516
tp517
F8.409059333485612e-05
s(g8
S'"folder_change"'
p518
tp519
F-0.0004726136890293556
s(g1
S'orders'
p520
tp521
F-0.0011170209326218485
s(g1
S'ship'
p522
tp523
F-0.0011170209326218485
s(g8
S'today.<br>'
p524
tp525
F0.0005603166503176598
s(g1
S'15:17:16'
p526
tp527
F0.0020467177530268665
s(g8
S'vs.'
p528
tp529
F-0.0006423602442156667
s(g8
S'services'
p530
tp531
F0.0012382686641795187
s(g8
S'spam.'
p532
tp533
F0.0012382686641795187
s(g1
S'signup'
p534
tp535
F-0.0012382686643746502
s(g8
S'savings,'
p536
tp537
F0.001113408564385992
s(g1
S'fit'
p538
tp539
F0.00047261368825425625
s(g1
S'before.'
p540
tp541
F-0.0012382686643746502
s(g1
S'address,'
p542
tp543
F-0.0011170209326218485
s(g1
g101
tp544
F0.001124799775656097
s(g8
g105
tp545
F-0.0004726136890293556
s(g1
S'11:23:03'
p546
tp547
F0.0011056681677741227
s(g8
S'below.'
p548
tp549
F0.0011170209329615997
s(g8
S'processed.'
p550
tp551
F0.0011170209329615997
s(g1
S'below!</b></font>'
p552
tp553
F-0.0011170209326218485
s(g1
S'commit'
p554
tp555
F-0.0005603166503732955
s(g1
g125
tp556
F-0.003593558261387463
s(g1
S'imap'
p557
tp558
F0.0010222524420174996
s(g8
S'pitch,'
p559
tp560
F0.0012382686641795187
s(g8
S'11:03:55'
p561
tp562
F0.00027769787229649343
s(g8
S'585973ed71;'
p563
tp564
F-0.0011056681679472657
s(g8
S'content-type:'
p565
tp566
F-0.0034012883330123093
s(g8
g434
tp567
F0.0005567042822851042
s(g1
S'3'
p568
tp569
F-0.0016737252148785317
s(g1
S'listman.redhat.com'
p570
tp571
F0.004521042213364226
s(g8
S'"spam".'
p572
tp573
F0.0012382686641795187
s(g8
S'united'
p574
tp575
F0.0005567042822851042
s(g1
S'16:19:56'
p576
tp577
F0.0006822392506960082
s(g1
g213
tp578
F-0.002241266601493182
s(g8
S'mark'
p579
tp580
F-0.0004726136890293556
s(g1
S"i'll"
p581
tp582
F-0.0012382686643746502
s(g1
S'pursuit'
p583
tp584
F-0.0012382686643746502
s(g1
g153
tp585
F-0.0005567042822477318
s(g1
S'put'
p586
tp587
F-0.0005567042822477318
s(g1
S'small'
p588
tp589
F0.0009452273765449016
s(g8
S'curb'
p590
tp591
F0.0011206333006353196
s(g8
g167
tp592
F-0.0013567381026937477
s(g8
S'security'
p593
tp594
F0.0005603166503176598
s(g8
S'sequence?'
p595
tp596
F-0.0006822392504639519
s(g1
S'addition'
p597
tp598
F0.00047261368825425625
s(g8
S'bulk'
p599
tp600
F-0.0010222524432002575
s(g1
S'02:18:18'
p601
tp602
F-0.0012382686643746502
s(g1
S'think!'
p603
tp604
F-0.0012382686643746502
s(g8
S'top'
p605
tp606
F-0.0004726136890293556
s(g8
S'may.'
p607
tp608
F0.0005567042822851042
s(g8
S'categories'
p609
tp610
F0.0005567042822851042
s(g8
S'naturally'
p611
tp612
F0.0005567042822851042
s(g1
S'visa____'
p613
tp614
F-0.0005603166503732955
s(g8
S'column.'
p615
tp616
F-0.0004726136890293556
s(g1
S'get...'
p617
tp618
F0.00047261368825425625
s(g1
S'bonus..."fat'
p619
tp620
F-0.0005567042822477318
s(g1
S'still'
p621
tp622
F-8.409059392236924e-05
s(g1
S'date:'
p623
tp624
F0.0017024446943974345
s(g1
S'worth'
p625
tp626
F-0.0005603166503732955
s(g8
S'payable'
p627
tp628
F0.0011170209329615997
s(g8
S'tue,'
p629
tp630
F0.0013216843890636975
s(g8
g197
tp631
F-0.0011056681679472657
s(g1
S'11:18:37'
p632
tp633
F-3.987900642075676e-05
s(g1
S'a'
p634
tp635
F0.0029206723714753973
s(g1
S'g4f7wie23864'
p636
tp637
F-0.00027900641013420545
s(g8
S'code,'
p638
tp639
F0.0011170209329615997
s(g8
S'(localhost.localdomain'
p640
tp641
F-0.0022605211074467595
s(g8
S'in'
p642
tp643
F0.005044108757922154
s(g8
g504
tp644
F-0.0006822392504639519
s(g8
g506
tp645
F0.0013223592580287303
s(g1
S'valdis.kletnieks@vt.edu'
p646
tp647
F0.0017879074179261993
s(g8
S'number(please'
p648
tp649
F0.0011170209329615997
s(g1
S'personal<br>'
p650
tp651
F-0.0005603166503732955
s(g8
S'aware'
p652
tp653
F0.0005603166503176598
s(g8
S'<jm-ilug@jmason.org>;'
p654
tp655
F0.0012382686641795187
s(g8
S'absorbers",'
p656
tp657
F0.0005567042822851042
s(g1
S'"flag_msgseen"'
p658
tp659
F0.0009452273765449016
s(g1
S'eval)'
p660
tp661
F-0.0012382686643746502
s(g8
S'ingredients'
p662
tp663
F0.0005567042822851042
s(g1
S'mlm,'
p664
tp665
F-0.0012382686643746502
s(g1
S'</html>'
p666
tp667
F-0.0011170209326218485
s(g1
S'live'
p668
tp669
F-0.001120633300746591
s(g8
S'rated'
p670
tp671
F0.0005567042822851042
s(g8
S'mail@localhost)'
p672
tp673
F-0.0022605211074467595
s(g8
S'war'
p674
tp675
F0.001038589706728856
s(g1
S'18:25:49'
p676
tp677
F-0.00027900641013420545
s(g1
S'microsoft'
p678
tp679
F-0.0005567042822477318
s(g8
S'7)'
p680
tp681
F-0.0009452273780587113
s(g1
S'delivery-date:'
p682
tp683
F-0.0011170209326218485
s(g8
S'important'
p684
tp685
F0.0012382686641795187
s(g8
S'14:01:35'
p686
tp687
F0.0005603166503176598
s(g8
g240
tp688
F0.00027900640994173886
s(g8
g257
tp689
F0.027893012249939016
s(g1
g263
tp690
F0.0006822392506960082
s(g8
S'from:'
p691
tp692
F-0.001702444696091258
s(g1
S'fill'
p693
tp694
F-0.0011170209326218485
s(g8
S'subject:'
p695
tp696
F9.476848832598665e-05
s(g1
S'never'
p697
tp698
F-8.34157261397158e-05
s(g8
S'boundary="==_exmh_-196335410p";'
p699
tp700
F-0.0006822392504639519
s(g8
S'invoked'
p701
tp702
F-0.013100062713625096
s(g8
S'ranmoore@swbell.net'
p703
tp704
F0.00027769787229649343
s(g8
S'0.419006'
p705
tp706
F3.9879006244336607e-05
s(g1
S'altra'
p707
tp708
F-0.0012382686643746502
s(g8
S'return-path:'
p709
tp710
F9.476848832598665e-05
s(g8
S'mon,'
p711
tp712
F0.002241266601270639
s(g8
S'or'
p713
tp714
F0.008614179816181839
s(g1
S'lengthen'
p715
tp716
F0.00047261368825425625
s(g8
S'5)'
p717
tp718
F-0.0009452273780587113
s(g8
S'promises'
p719
tp720
F0.0012382686641795187
s(g8
S'short'
p721
tp722
F-0.0006822392504639519
s(g1
S'america,'
p723
tp724
F-0.0005603166503732955
s(g1
S'[ilug]'
p725
tp726
F-0.0012382686643746502
s(g1
S'pseq'
p727
tp728
F0.0006822392506960082
s(g8
S'(fetchmail-5.9.0)'
p729
tp730
F-0.0010222524432002575
s(g1
S'erroneous'
p731
tp732
F-0.0012382686643746502
s(g1
S'americanexpress___'
p733
tp734
F-0.0005603166503732955
s(g1
S'g4f7wgd24120'
p735
tp736
F-0.00027900641013420545
s(g1
S'criminals'
p737
tp738
F-0.0005603166503732955
s(g1
S'built-in'
p739
tp740
F0.0006822392506960082
s(g8
S'06/23/2000'
p741
tp742
F-0.0006423602442156667
s(g1
S'--==_exmh_-196335410p--'
p743
tp744
F0.0006822392506960082
s(g8
S"we'll"
p745
tp746
F0.0005567042822851042
s(g8
S'g7lfjuz30902'
p747
tp748
F-0.0006822392504639519
s(g1
S'thousands'
p749
tp750
F-0.0012382686643746502
s(g8
S'cosmetic'
p751
tp752
F-0.0004726136890293556
s(g1
S'***and'
p753
tp754
F-0.0005567042822477318
s(g1
S'defined,'
p755
tp756
F0.00047261368825425625
s(g1
S'guaranteed!!!'
p757
tp758
F-0.0005567042822477318
s(g8
S'provide'
p759
tp760
F0.0005567042822851042
s(g8
S'combination'
p761
tp762
F0.0005567042822851042
s(g1
S'dream"'
p763
tp764
F-0.0012382686643746502
s(g8
S'super'
p765
tp766
F0.0005603166503176598
s(g8
S'&'
p767
tp768
F0.006698513238426679
s(g1
S'overcrowded<br>'
p769
tp770
F-0.0005603166503732955
s(g1
S'entry'
p771
tp772
F0.0009452273765449016
s(g1
S'wed,'
p773
tp774
F0.022829648390757303
s(g8
S'not'
p775
tp776
F0.00011346888656939914
s(g8
S'current.'
p777
tp778
F-0.0004726136890293556
s(g1
g627
tp779
F-0.0011170209326218485
s(g1
g559
tp780
F-0.0012382686643746502
s(g8
S'50'
p781
tp782
F0.0012382686641795187
s(g1
S'$9.00)<br>'
p783
tp784
F-0.0005603166503732955
s(g8
S'stunbaton'
p785
tp786
F0.0011206333006353196
s(g1
S'period.'
p787
tp788
F-0.0012382686643746502
s(g1
g338
tp789
F0.006041430633656534
s(g1
S'kind'
p790
tp791
F-0.0005560294138386891
s(g8
S'removal'
p792
tp793
F0.0012382686641795187
s(g1
S'<center>'
p794
tp795
F-0.0016737252148785317
s(g1
S'now!'
p796
tp797
F-0.0011134085644977764
s(g8
S'25,'
p798
tp799
F0.0005603166503176598
s(g8
g354
tp800
F0.0005603166503176598
s(g1
S'11:17:21'
p801
tp802
F0.0006822392506960082
s(g1
S'works,'
p803
tp804
F-0.0012382686643746502
s(g8
S'wide).'
p805
tp806
F-0.0004726136890293556
s(g8
S'actually,'
p807
tp808
F-0.0004726136890293556
s(g1
S'-----end'
p809
tp810
F0.0017480284108613404
s(g8
S'bugs.'
p811
tp812
F-0.0006822392504639519
s(g1
S'11:17:19'
p813
tp814
F0.0006822392506960082
s(g1
S'shipping'
p815
tp816
F-0.00558871703124279
s(g8
S'does'
p817
tp818
F-0.0016274666285365676
s(g1
S'number)'
p819
tp820
F-0.0011170209326218485
s(g1
S'please'
p821
tp822
F-0.005827600126623887
s(g1
S'512'
p823
tp824
F0.0006423602445522268
s(g1
S'sales'
p825
tp826
F-0.0012382686643746502
s(g8
S'tech'
p827
tp828
F-0.0011056681679472657
s(g1
S'new'
p829
tp830
F0.0006858900681055414
s(g8
S'send.'
p831
tp832
F0.0012382686641795187
s(g8
S'jordan23@mailexcite.com'
p833
tp834
F0.0005553957445929869
s(g1
S'cost'
p835
tp836
F-0.0012382686643746502
s(g1
S'unsolicitated,'
p837
tp838
F-0.0012382686643746502
s(g1
S'weight,'
p839
tp840
F-0.0005567042822477318
s(g1
S'starved'
p841
tp842
F-0.0005567042822477318
s(g1
S'address'
p843
tp844
F-0.005706352394856394
s(g8
S'fax!!!'
p845
tp846
F0.0016737252138999091
s(g1
S'10:17:17'
p847
tp848
F0.0006822392506960082
s(g8
S'show",'
p849
tp850
F-0.0004726136890293556
s(g8
S'sequences,'
p851
tp852
F-0.0004726136890293556
s(g1
S'capsules,'
p853
tp854
F-0.0005567042822477318
s(g1
S'believe'
p855
tp856
F-0.0012382686643746502
s(g8
S'all,'
p857
tp858
F-0.0004726136890293556
s(g1
S'century'
p859
tp860
F-0.0016701128467466945
s(g1
S"can't"
p861
tp862
F-8.409059392236924e-05
s(g8
S'when'
p863
tp864
F-0.0011247997821316076
s(g1
S'stun'
p865
tp866
F-0.002801583251877611
s(g1
S'unseen'
p867
tp868
F0.0009452273765449016
s(g1
g409
tp869
F-0.0024765373287493004
s(g8
g45
tp870
F0.0005567042822851042
s(g8
S'money'
p871
tp872
F0.0012382686641795187
s(g1
S'in<br>'
p873
tp874
F-0.0005567042822477318
s(g8
g53
tp875
F0.0005567042822851042
s(g8
S'control'
p876
tp877
F0.0005567042822851042
s(g8
S'who'
p878
tp879
F0.0036812612204444152
s(g8
S'boosts'
p880
tp881
F0.0005567042822851042
s(g1
S'getting'
p882
tp883
F-0.0005603166503732955
s(g8
g725
tp884
F0.0012382686641795187
s(g8
S'cut'
p885
tp886
F0.0012382686641795187
s(g1
S'sticky,'
p887
tp888
F0.00047261368825425625
s(g1
S'what'
p889
tp890
F-0.0012011115261848517
s(g1
S'receiving'
p891
tp892
F-0.004953074657498601
s(g1
S'work'
p893
tp894
F-0.003036853979125883
s(g8
S'ready!'
p895
tp896
F0.0005603166503176598
s(g8
S'them,'
p897
tp898
F0.0005603166503176598
s(g8
S'*****************<br>'
p899
tp900
F0.0022340418631939503
s(g1
g65
tp901
F0.0011056681677741227
s(g8
g735
tp902
F0.00027900640994173886
s(g8
S'<mailto:exmh-workers@spamassassin.taint.org>'
p903
tp904
F-0.0022605211074467595
s(g1
S'obviously'
p905
tp906
F0.00047261368825425625
s(g8
S'(int-mx1.corp.spamassassin.taint.org'
p907
tp908
F-0.0022605211074467595
s(g1
S'(a'
p909
tp910
F-0.0016737252148785317
s(g1
S'police'
p911
tp912
F-0.0005603166503732955
s(g1
S'offer'
p913
tp914
F-0.0005567042822477318
s(g1
S'news'
p915
tp916
F-0.0012382686643746502
s(g1
S'(w142.z064000057.nyc-ny.dsl.cnc.net'
p917
tp918
F-0.0012382686643746502
s(g1
g845
tp919
F-0.0016737252148785317
s(g8
g753
tp920
F0.0005567042822851042
s(g1
S'11:08:41'
p921
tp922
F0.0011056681677741227
s(g1
S'2002.'
p923
tp924
F-0.0005567042822477318
s(g1
S'tend'
p925
tp926
F0.0011548529398975327
s(g1
g514
tp927
F-0.0005567042822477318
s(g1
S'appears'
p928
tp929
F-0.0033510627978591435
s(g1
g775
tp930
F-0.0001134688858964531
s(g8
S'value*****'
p931
tp932
F0.0005567042822851042
s(g1
S'([206.216.197.214])'
p933
tp934
F-0.00027900641013420545
s(g1
S'***offer'
p935
tp936
F-0.0005567042822477318
s(g8
S'$args"'
p937
tp938
F-0.0004726136890293556
s(g1
S'webcust2.hightowertech.com'
p939
tp940
F-0.0011134085644977764
s(g8
S'way'
p941
tp942
F0.0013223592580287303
s(g1
g703
tp943
F-0.00027769787211492925
s(g1
S'name,'
p944
tp945
F0.0006822392506960082
s(g1
g492
tp946
F-0.0012382686643746502
s(g8
S'cordially,'
p947
tp948
F0.0012382686641795187
s(g8
S'contained'
p949
tp950
F-0.0004726136890293556
s(g8
S'"sequences"'
p951
tp952
F-0.0004726136890293556
s(g1
S'me'
p953
tp954
F0.0008618116512517635
s(g1
S'efforts'
p955
tp956
F-0.0005567042822477318
s(g1
S'do'
p957
tp958
F0.00047261368825425625
s(g8
S'megatrim'
p959
tp960
F0.0016701128458752417
s(g1
S'<200208210251.g7l2pqkb001805@turing-police.cc.vt.edu>'
p961
tp962
F0.002470146668859268
s(g8
S'tomorrow!'
p963
tp964
F0.001113408564385992
s(g8
S'match'
p965
tp966
F0.0011170209329615997
s(g1
S"don't"
p967
tp968
F-0.0010064510966890752
s(g8
g494
tp969
F-0.0006822392504639519
s(g1
S'2'
p970
tp971
F-0.005941623122121429
s(g1
S'($86.95)<br>'
p972
tp973
F-0.0005603166503732955
s(g1
g807
tp974
F0.00047261368825425625
s(g1
S'11:03:26'
p975
tp976
F-3.987900642075676e-05
s(g8
S'program.'
p977
tp978
F0.0005567042822851042
s(g8
S'time:7:20:54'
p979
tp980
F0.00027769787229649343
s(g8
S'78701'
p981
tp982
F-0.0006423602442156667
s(g8
g819
tp983
F0.0011170209329615997
s(g8
g790
tp984
F0.0005560294138400034
s(g8
S'-0700'
p985
tp986
F0.0005567042822851042
s(g8
S'reduces'
p987
tp988
F0.0005567042822851042
s(g1
S'time.'
p989
tp990
F-0.0005603166503732955
s(g8
S'known'
p991
tp992
F0.0005567042822851042
s(g1
S'takes'
p993
tp994
F0.00047261368825425625
s(g8
g841
tp995
F0.0005567042822851042
s(g1
S'about'
p996
tp997
F-0.0048354392938912945
s(g8
S'some'
p998
tp999
F-0.00038491072844135143
s(g8
g843
tp1000
F0.005706352398870295
s(g8
S'message'
p1001
tp1002
F-0.0027030816370802262
s(g1
S'('
p1003
tp1004
F-0.0005567042822477318
s(g8
S'info"'
p1005
tp1006
F0.0012382686641795187
s(g8
g859
tp1007
F0.0016701128458752417
s(g8
g861
tp1008
F8.409059333485612e-05
s(g8
S'you.'
p1009
tp1010
F0.0005603166503176598
s(g8
S'55)'
p1011
tp1012
F-0.0004726136890293556
s(g8
S'baa11067'
p1013
tp1014
F0.00027769787229649343
s(g1
S'1.1'
p1015
tp1016
F-0.0012382686643746502
s(g1
S'purpose.'
p1017
tp1018
F0.0006822392506960082
s(g1
S'list-post:'
p1019
tp1020
F0.002260521105506265
s(g8
S'specifically'
p1021
tp1022
F0.0005567042822851042
s(g8
S'report!</b>'
p1023
tp1024
F0.0005567042822851042
s(g1
g871
tp1025
F-0.0012382686643746502
s(g1
S'authorized'
p1026
tp1027
F-0.0011170209326218485
s(g8
g195
tp1028
F-0.0014178410670673788
s(g8
S'([199.35.236.73])'
p1029
tp1030
F0.00027769787229649343
s(g1
S'<0925c5750200f52webcust2@webcust2.hightowertech.com>'
p1031
tp1032
F-0.00027769787211492925
s(g1
S'wanting'
p1033
tp1034
F0.00047261368825425625
s(g1
S'absorbers'
p1035
tp1036
F-0.0016701128467466945
s(g1
S'13:50:57'
p1037
tp1038
F-0.00027769787211492925
s(g1
g895
tp1039
F-0.0005603166503732955
s(g8
g570
tp1040
F-0.0045210422148566735
s(g8
S'text/plain;'
p1041
tp1042
F-0.0010222524432002575
s(g1
S'exmh-workers@listman.redhat.com;'
p1043
tp1044
F0.002260521105506265
s(g8
g905
tp1045
F-0.0004726136890293556
s(g8
S'often'
p1046
tp1047
F-0.0004726136890293556
s(g1
S'introduce'
p1048
tp1049
F-0.0012382686643746502
s(g1
S'$cmd'
p1050
tp1051
F0.0009452273765449016
s(g1
g579
tp1052
F0.00047261368825425625
s(g8
S'(since'
p1053
tp1054
F-0.0017879074184001121
s(g1
S'(from'
p1055
tp1056
F0.002260521105506265
s(g1
S'host'
p1057
tp1058
F-0.0012382686643746502
s(g8
g682
tp1059
F0.0011170209329615997
s(g8
S'search'
p1060
tp1061
F-0.0004726136890293556
s(g8
S"didn't,"
p1062
tp1063
F-0.0004726136890293556
s(g8
S'u.s.a.<br>'
p1064
tp1065
F0.0005603166503176598
s(g8
S'13:33:57'
p1066
tp1067
F-0.000512492695274234
s(g8
S'http://black-ice.cc.vt.edu/~valdis/'
p1068
tp1069
F-0.0011056681679472657
s(g8
S'"folderchange"'
p1070
tp1071
F-0.0004726136890293556
s(g1
S'promise'
p1072
tp1073
F-0.0012382686643746502
s(g8
S'effectiveness'
p1074
tp1075
F0.0005567042822851042
s(g1
g931
tp1076
F-0.0005567042822477318
s(g8
S'nonlethal'
p1077
tp1078
F0.0005603166503176598
s(g8
S'reply,'
p1079
tp1080
F0.0012382686641795187
s(g1
S'systems,'
p1081
tp1082
F-0.0012382686643746502
s(g1
S'charset="us-ascii";'
p1083
tp1084
F-0.0012382686643746502
s(g1
S'terms'
p1085
tp1086
F-0.0012382686643746502
s(g1
S'ones,'
p1087
tp1088
F-0.0005603166503732955
s(g1
g609
tp1089
F-0.0005567042822477318
s(g1
S'help'
p1090
tp1091
F-0.0016737252148785317
s(g1
S'permanently!!!'
p1092
tp1093
F-0.0005567042822477318
s(g1
S'06:48:09'
p1094
tp1095
F-0.0012382686643746502
s(g8
S'*****important'
p1096
tp1097
F0.0011170209329615997
s(g1
S'second,'
p1098
tp1099
F0.00047261368825425625
s(g8
S'those'
p1100
tp1101
F8.409059333485612e-05
s(g8
S'+1'
p1102
tp1103
F-0.0006423602442156667
s(g8
S'(helo'
p1104
tp1105
F-0.0006423602442156667
s(g1
S'thu'
p1106
tp1107
F-0.00027769787211492925
s(g8
S'ones'
p1108
tp1109
F0.0006480196111925602
s(g8
g520
tp1110
F0.0011170209329615997
s(g8
S'(ict)'
p1111
tp1112
F-0.001024985390548468
s(g1
g236
tp1113
F-0.0032421923042757596
s(g1
S'long-term'
p1114
tp1115
F-0.0011134085644977764
s(g1
g274
tp1116
F-0.0012382686643746502
s(g1
S'if'
p1117
tp1118
F-0.00471002508700745
s(g8
S'775-257-6657.<br>'
p1119
tp1120
F0.0016701128458752417
s(g1
S'few'
p1121
tp1122
F-0.0012382686643746502
s(g1
S'minutes'
p1123
tp1124
F-0.0005567042822477318
s(g8
S'16:20:04'
p1125
tp1126
F3.9879006244336607e-05
s(g8
S'deepeddy.vircio.com)'
p1127
tp1128
F-0.0006423602442156667
s(g1
S"cities'"
p1129
tp1130
F-0.0005603166503732955
s(g1
S'unwanted'
p1131
tp1132
F-0.0012382686643746502
s(g8
S'"msg_show"'
p1133
tp1134
F-0.0004726136890293556
s(g1
S'charge.'
p1135
tp1136
F-0.0005603166503732955
s(g1
g652
tp1137
F-0.0005603166503732955
s(g8
S'easiest,'
p1138
tp1139
F0.0005567042822851042
s(g8
S'web'
p1140
tp1141
F0.0016737252138999091
s(g1
S'ordered'
p1142
tp1143
F0.00047261368825425625
s(g8
S'packed,'
p1144
tp1145
F-0.0004726136890293556
s(g1
S'current'
p1146
tp1147
F0.00047261368825425625
s(g1
S'well,'
p1148
tp1149
F-8.770296129449921e-05
s(g8
S'g7lf2ul24494'
p1150
tp1151
F-0.0006822392504639519
s(g8
S'has'
p1152
tp1153
F0.006153511311949378
s(g1
S'message-id:'
p1154
tp1155
F0.0010600844463738532
s(g8
S'listmaster@linux.ie'
p1156
tp1157
F0.0012382686641795187
s(g8
S'gifts!<br>'
p1158
tp1159
F0.0005603166503176598
s(g1
S'{msg_show'
p1160
tp1161
F0.00047261368825425625
s(g8
S'0500'
p1162
tp1163
F-0.0006423602442156667
s(g1
g1009
tp1164
F-0.0005603166503732955
s(g8
S'even'
p1165
tp1166
F-0.00012192260036861346
s(g8
S'(single-drop);'
p1167
tp1168
F-0.0010222524432002575
s(g1
S'our'
p1169
tp1170
F-0.01166242498958572
s(g8
S'(ident:q6nj7ixttt2uxjzjpeadx4puuxac8bqa@jump-austin.vircio.com'
p1171
tp1172
F-0.0006822392504639519
s(g8
S'burners,'
p1173
tp1174
F0.0005567042822851042
s(g8
S'unit'
p1175
tp1176
F0.0005603166503176598
s(g1
S'is,'
p1177
tp1178
F0.00047261368825425625
s(g1
S'information'
p1179
tp1180
F-0.00483182692575156
s(g8
S'straight'
p1181
tp1182
F0.0011206333006353196
s(g1
S'city,'
p1183
tp1184
F-0.0011170209326218485
s(g8
S'$msg(id)'
p1185
tp1186
F-0.0004726136890293556
s(g1
S'pounds'
p1187
tp1188
F-0.0011134085644977764
s(g1
g344
tp1189
F-0.0005567042822477318
s(g8
S'merchantsworld2001@juno.com'
p1190
tp1191
F0.0011170209329615997
s(g8
S'away'
p1192
tp1193
F0.0005567042822851042
s(g8
S'time:2:01:35'
p1194
tp1195
F0.0005603166503176598
s(g1
S'hmm'
p1196
tp1197
F0.0017879074179261993
s(g8
S'g4d3k2d12605'
p1198
tp1199
F0.0005603166503176598
s(g8
g723
tp1200
F0.0005603166503176598
s(g1
S'address____________________________________________________<br>'
p1201
tp1202
F-0.0011170209326218485
s(g1
S'bonus'
p1203
tp1204
F-0.0005567042822477318
s(g8
S'heard'
p1205
tp1206
F0.0012382686641795187
s(g8
S'(ident:6dmftypy+nt8ikpb7g5xkbcz4rfr4kgz@jump-austin.vircio.com'
p1207
tp1208
F3.9879006244336607e-05
s(g1
S'500,000'
p1209
tp1210
F-0.0005603166503732955
s(g1
S'45405<br>'
p1211
tp1212
F-0.0011170209326218485
s(g1
g1053
tp1213
F0.0017879074179261993
s(g1
g362
tp1214
F-0.0005603166503732955
s(g1
S'absorbers!'
p1215
tp1216
F-0.0005567042822477318
s(g8
S'earning'
p1217
tp1218
F0.0012382686641795187
s(g8
S'21/08/2002'
p1219
tp1220
F-0.0006423602442156667
s(g8
S'11:02:56'
p1221
tp1222
F-0.0006822392504639519
s(g1
S'during'
p1223
tp1224
F-0.0005567042822477318
s(g8
S'x-keywords:'
p1225
tp1226
F0.0011170209329615997
s(g1
S'***fat'
p1227
tp1228
F-0.0005567042822477318
s(g8
S'address.'
p1229
tp1230
F0.0005567042822851042
s(g1
S'before'
p1231
tp1232
F0.001616113861170634
s(g8
S'messages'
p1233
tp1234
F-0.0004726136890293556
s(g8
S'*****************'
p1235
tp1236
F0.0022340418631939503
s(g8
S'$msgid"'
p1237
tp1238
F-0.0009452273780587113
s(g8
S'(turing-police.cc.vt.edu'
p1239
tp1240
F-0.0011056681679472657
s(g8
S'g7lcuqx17585'
p1241
tp1242
F-0.000512492695274234
s(g1
g251
tp1243
F0.0006822392506960082
s(g1
S'___add'
p1244
tp1245
F-0.0005603166503732955
s(g8
g389
tp1246
F0.0005567042822851042
s(g1
S'it'
p1247
tp1248
F-0.004367760565442939
s(g1
g767
tp1249
F-0.006698513227608824
s(g1
S'below'
p1250
tp1251
F-0.0011170209326218485
s(g8
S'turing-police.cc.vt.edu'
p1252
tp1253
F-0.0033170045038195418
s(g8
S'handling'
p1254
tp1255
F0.0011206333006353196
s(g1
S'folderchange'
p1256
tp1257
F0.00047261368825425625
s(g8
S'its'
p1258
tp1259
F0.0024765373283590375
s(g1
g401
tp1260
F-0.0005567042822477318
s(g1
S'tell'
p1261
tp1262
F-0.0037148059931212804
s(g1
S'own'
p1263
tp1264
F-0.0005603166503732955
s(g8
g787
tp1265
F0.0012382686641795187
s(g1
g792
tp1266
F-0.0012382686643746502
s(g8
S'knife'
p1267
tp1268
F0.0005603166503176598
s(g1
S'emailing.'
p1269
tp1270
F-0.0012382686643746502
s(g8
g1117
tp1271
F0.004710025066985231
s(g1
g420
tp1272
F0.00047261368825425625
s(g1
S'sequences.'
p1273
tp1274
F0.00047261368825425625
s(g8
S'letter.'
p1275
tp1276
F0.0012382686641795187
s(g8
S'09:04:46'
p1277
tp1278
F0.0005603166503176598
s(g1
S'"search"'
p1279
tp1280
F0.00047261368825425625
s(g8
g803
tp1281
F0.0012382686641795187
s(g1
S'any'
p1282
tp1283
F0.0009794470137594086
s(g1
S'f12a13ea25;'
p1284
tp1285
F0.000512492694989887
s(g1
g561
tp1286
F-0.00027769787211492925
s(g1
g1140
tp1287
F-0.0016737252148785317
s(g1
S'mx1.redhat.com'
p1288
tp1289
F0.0017480284108613404
s(g1
S'window'
p1290
tp1291
F0.005568816940546156
s(g8
S'at'
p1292
tp1293
F-0.0004726136890293556
s(g1
S'said:'
p1294
tp1295
F0.0011056681677741227
s(g8
S'until'
p1296
tp1297
F0.0016737252138999091
s(g8
S'ilug@linux.ie'
p1298
tp1299
F0.003714805993052755
s(g8
S'works'
p1300
tp1301
F0.0012382686641795187
s(g1
S'hours.'
p1302
tp1303
F-0.0012382686643746502
s(g1
S'size'
p1304
tp1305
F0.00047261368825425625
s(g1
S'mon'
p1306
tp1307
F-0.0016773375829980354
s(g1
S'format=flowed'
p1308
tp1309
F-0.0012382686643746502
s(g8
g853
tp1310
F0.0005567042822851042
s(g8
S'($79.95)<br>'
p1311
tp1312
F0.0005603166503176598
s(g1
S'group:'
p1313
tp1314
F-0.0012382686643746502
s(g8
S"i'm"
p1315
tp1316
F-0.0025726940066335352
s(g1
S'difference.'
p1317
tp1318
F0.000512492694989887
s(g8
S'ftoc'
p1319
tp1320
F-0.0009452273780587113
s(g1
S'([203.129.205.5])'
p1321
tp1322
F-0.0005603166503732955
s(g8
S'g7lcgnl23207'
p1323
tp1324
F-0.000512492695274234
s(g1
S'"'
p1325
tp1326
F0.00047261368825425625
s(g8
g1183
tp1327
F0.0011170209329615997
s(g8
S'16'
p1328
tp1329
F0.0011107914891859737
s(g8
S'real'
p1330
tp1331
F0.0023589019646316216
s(g8
S'smtpsvc(5.5.1877.197.19);'
p1332
tp1333
F0.0005567042822851042
s(g8
g658
tp1334
F-0.0009452273780587113
s(g8
g1269
tp1335
F0.0012382686641795187
s(g8
S'<cwg-exmh@deepeddy.com>)'
p1336
tp1337
F-0.0012847204884454807
s(g1
S"that's"
p1338
tp1339
F0.0006822392506960082
s(g1
S'(edt)'
p1340
tp1341
F0.005543294657515343
s(g8
g887
tp1342
F-0.0004726136890293556
s(g1
S'everywhere,'
p1343
tp1344
F0.00047261368825425625
s(g8
S'<b0000178595@203.129.205.5.205.129.203.in-addr.arpa>'
p1345
tp1346
F0.0005603166503176598
s(g1
S'names'
p1347
tp1348
F0.0006822392506960082
s(g8
g1003
tp1349
F0.0005567042822851042
s(g1
g1221
tp1350
F0.0006822392506960082
s(g8
S'x-image-url:'
p1351
tp1352
F-0.0006423602442156667
s(g1
S'x-face:'
p1353
tp1354
F0.0011056681677741227
s(g1
g903
tp1355
F0.002260521105506265
s(g8
S'flawed,'
p1356
tp1357
F0.0012382686641795187
s(g8
S'<cwg-dated-1030314468.7c7c85@deepeddy.com>'
p1358
tp1359
F-0.000512492695274234
s(g1
g1062
tp1360
F0.00047261368825425625
s(g8
S'due'
p1361
tp1362
F0.0012382686641795187
s(g1
g1239
tp1363
F0.0011056681677741227
s(g8
S'insanity'
p1364
tp1365
F0.0012382686641795187
s(g8
S"i'd"
p1366
tp1367
F0.0007656549747190989
s(g1
S'...with'
p1368
tp1369
F-0.0005567042822477318
s(g8
S'$folder'
p1370
tp1371
F-0.0004726136890293556
s(g1
S'hit'
p1372
tp1373
F-0.0012382686643746502
s(g1
S'fri,'
p1374
tp1375
F-0.006191343321887912
s(g1
S'root'
p1376
tp1377
F0.0009452273765449016
s(g8
S'you,'
p1378
tp1379
F0.0012382686641795187
s(g8
S'27,'
p1380
tp1381
F0.001113408564385992
s(g8
S'10:17:45'
p1382
tp1383
F3.9879006244336607e-05
s(g8
S'week'
p1384
tp1385
F-0.0004726136890293556
s(g1
S'must'
p1386
tp1387
F-0.0011170209326218485
s(g1
S'responsibility'
p1388
tp1389
F-0.0005603166503732955
s(g1
S'(command'
p1390
tp1391
F0.00047261368825425625
s(g8
S'year_____'
p1392
tp1393
F0.0011170209329615997
s(g1
g947
tp1394
F-0.0012382686643746502
s(g1
S'you'
p1395
tp1396
F-0.033670933478094835
s(g1
S'free,'
p1397
tp1398
F-0.0012382686643746502
s(g8
S'0530'
p1399
tp1400
F0.0012382686641795187
s(g8
S'box,'
p1401
tp1402
F-0.0004726136890293556
s(g8
S'g7lcuqy17578'
p1403
tp1404
F-0.000512492695274234
s(g1
g1275
tp1405
F-0.0012382686643746502
s(g1
S"haven't"
p1406
tp1407
F-0.0013216843898362317
s(g1
g37
tp1408
F0.00047261368825425625
s(g1
S'helping'
p1409
tp1410
F-0.0005567042822477318
s(g8
S'explicit'
p1411
tp1412
F0.0012382686641795187
s(g1
S'___3'
p1413
tp1414
F-0.0005567042822477318
s(g8
S'08:16:24'
p1415
tp1416
F-0.000512492695274234
s(g8
S'int($minlineno+1+($msgid-$minmsgid)*($maxlineno-$minlineno-2)/($maxms'
p1417
tp1418
F3.9879006244336607e-05
s(g8
S'pm'
p1419
tp1420
F0.0008393230602125487
s(g1
S'msgchange'
p1421
tp1422
F0.00047261368825425625
s(g1
S'fedex,'
p1423
tp1424
F-0.0005603166503732955
s(g1
g574
tp1425
F-0.0005567042822477318
s(g8
S'other'
p1426
tp1427
F-0.0014178410670673788
s(g8
S'$69.95,'
p1428
tp1429
F0.0005567042822851042
s(g1
S'<exmh-workers@redhat.com>;'
p1430
tp1431
F0.005805762705774383
s(g1
g985
tp1432
F-0.0005567042822477318
s(g8
S'<b>'
p1433
tp1434
F0.002794358512492266
s(g8
S'$msg"'
p1435
tp1436
F-0.0004726136890293556
s(g8
S'banned'
p1437
tp1438
F0.0005567042822851042
s(g1
S'bottle)!'
p1439
tp1440
F-0.0011134085644977764
s(g8
g1302
tp1441
F0.0012382686641795187
s(g1
S'vircio'
p1442
tp1443
F0.0006423602445522268
s(g1
S'"msgseen'
p1444
tp1445
F0.00047261368825425625
s(g8
g25
tp1446
F-0.0004726136890293556
s(g1
S'items!'
p1447
tp1448
F-0.0005603166503732955
s(g8
S'15:17:47'
p1449
tp1450
F3.9879006244336607e-05
s(g1
S'spray'
p1451
tp1452
F-0.001120633300746591
s(g8
g1313
tp1453
F0.0012382686641795187
s(g1
S'[127.0.0.1]'
p1454
tp1455
F0.0010222524420174996
s(g1
S'austin,'
p1456
tp1457
F0.0006423602445522268
s(g1
g39
tp1458
F-0.0005567042822477318
s(g1
S'crime!'
p1459
tp1460
F-0.0016809499511218808
s(g1
S'sorted,'
p1461
tp1462
F0.00047261368825425625
s(g8
S'else'
p1463
tp1464
F-0.0004726136890293556
s(g8
S'single'
p1465
tp1466
F-0.0004726136890293556
s(g8
S'remember'
p1467
tp1468
F-0.0004726136890293556
s(g8
S'management.<br>'
p1469
tp1470
F0.0005567042822851042
s(g1
g1330
tp1471
F-0.002358901965133317
s(g8
S'[172.16.48.31])'
p1472
tp1473
F-0.0022605211074467595
s(g8
S'lmrn@mailexcite.com'
p1474
tp1475
F0.0011206333006353196
s(g1
S'<mailto:exmh-workers-request@redhat.com?subject=subscribe>'
p1476
tp1477
F0.002260521105506265
s(g8
g1338
tp1478
F-0.0006822392504639519
s(g8
S'cbmark@cbmark.com'
p1479
tp1480
F0.00027900640994173886
s(g1
S'stimulates'
p1481
tp1482
F-0.0005567042822477318
s(g8
g1033
tp1483
F-0.0004726136890293556
s(g1
S'tv,'
p1484
tp1485
F-0.0005567042822477318
s(g1
S'fonts'
p1486
tp1487
F0.00047261368825425625
s(g1
S'(to'
p1488
tp1489
F0.00047261368825425625
s(g1
S'qmail-scanner-0.90'
p1490
tp1491
F0.0006423602445522268
s(g1
S'<0845b5355070f52webcust2@webcust2.hightowertech.com>'
p1492
tp1493
F-0.00027900641013420545
s(g8
g69
tp1494
F0.0005567042822851042
s(g8
g1050
tp1495
F-0.0009452273780587113
s(g1
g79
tp1496
F0.00047261368825425625
s(g1
S'exercise'
p1497
tp1498
F-0.0005603166503732955
s(g1
S'content-transfer-encoding:'
p1499
tp1500
F0.0017480284108613404
s(g8
g664
tp1501
F0.0012382686641795187
s(g8
g666
tp1502
F0.0011170209329615997
s(g8
S'22:52:32'
p1503
tp1504
F0.0012382686641795187
s(g1
g1070
tp1505
F0.00047261368825425625
s(g8
S'doubt'
p1506
tp1507
F-0.0006822392504639519
s(g1
S'"msgshow'
p1508
tp1509
F0.00047261368825425625
s(g8
S'card___'
p1510
tp1511
F0.0005603166503176598
s(g1
S'28'
p1512
tp1513
F-0.0005603166503732955
s(g1
S'wait,<br>'
p1514
tp1515
F-0.0005603166503732955
s(g8
S'"expr'
p1516
tp1517
F-0.0004726136890293556
s(g1
S'space'
p1518
tp1519
F0.00047261368825425625
s(g1
g245
tp1520
F0.00047261368825425625
s(g1
g1079
tp1521
F-0.0012382686643746502
s(g8
S'similar.'
p1522
tp1523
F-0.0004726136890293556
s(g8
g111
tp1524
F-0.0004726136890293556
s(g8
S'handle.'
p1525
tp1526
F0.0005603166503176598
s(g1
g1399
tp1527
F-0.0012382686643746502
s(g8
S'<1029882468.3116.tmda@deepeddy.vircio.com>'
p1528
tp1529
F-0.0032456274917892864
s(g1
g129
tp1530
F-0.0012382686643746502
s(g1
g1417
tp1531
F-3.987900642075676e-05
s(g1
g711
tp1532
F-0.002241266601493182
s(g8
S'cholesterol'
p1533
tp1534
F0.0005567042822851042
s(g8
S'(uvscan:'
p1535
tp1536
F-0.0006423602442156667
s(g1
S'this'
p1537
tp1538
F-0.012543088982792792
s(g1
S'12)'
p1539
tp1540
F0.00047261368825425625
s(g1
S'11:18:36'
p1541
tp1542
F0.0006822392506960082
s(g1
g721
tp1543
F0.0006822392506960082
s(g1
g1021
tp1544
F-0.0005567042822477318
s(g1
S'lugh.tuatha.org:'
p1545
tp1546
F-0.0012382686643746502
s(g1
S'below,'
p1547
tp1548
F-0.0016737252148785317
s(g1
S'html'
p1549
tp1550
F-0.0011170209326218485
s(g8
S'are,'
p1551
tp1552
F0.0005603166503176598
s(g1
S'16:18:36'
p1553
tp1554
F0.0013644785013920164
s(g8
S'safe'
p1555
tp1556
F0.0011170209329615997
s(g1
S'ct.<br>'
p1557
tp1558
F-0.0005567042822477318
s(g8
S'([213.105.180.140])'
p1559
tp1560
F0.0011170209329615997
s(g8
S'necessary.'
p1561
tp1562
F0.0012382686641795187
s(g1
S'13'
p1563
tp1564
F-0.002241266601493182
s(g1
g159
tp1565
F-0.0005567042822477318
s(g1
g741
tp1566
F0.0006423602445522268
s(g8
S'weapons'
p1567
tp1568
F0.0005603166503176598
s(g8
g1148
tp1569
F8.77029611148478e-05
s(g1
S'touched'
p1570
tp1571
F-0.0005603166503732955
s(g1
S'$28.90'
p1572
tp1573
F-0.0005567042822477318
s(g8
S'cursorall'
p1574
tp1575
F-0.0004726136890293556
s(g1
S'=coew'
p1576
tp1577
F-3.987900642075676e-05
s(g8
S'DEFAULT'
p1578
tp1579
F0.0
s(g1
S'no'
p1580
tp1581
F-0.004229511792543902
s(g1
S'cholesterol.<br>'
p1582
tp1583
F-0.0005567042822477318
s(g8
g1169
tp1584
F0.0116624250051536
s(g1
S'"pickinner'
p1585
tp1586
F0.00047261368825425625
s(g1
S'capsules'
p1587
tp1588
F-0.0016701128467466945
s(g1
S'by'
p1589
tp1590
F0.0055042783499709026
s(g8
g773
tp1591
F-0.022829648400940365
s(g8
S'sale,'
p1592
tp1593
F0.0005603166503176598
s(g1
g701
tp1594
F0.013100062590434893
s(g8
S'message,'
p1595
tp1596
F-0.0004726136890293556
s(g1
S'trim'
p1597
tp1598
F-0.0011134085644977764
s(g8
S'mandark.labs.netnoteinc.com'
p1599
tp1600
F0.0022340418631939503
s(g1
S'___moneyorder<br>'
p1601
tp1602
F-0.0005567042822477318
s(g1
S'saying'
p1603
tp1604
F0.00047261368825425625
s(g8
S'information,'
p1605
tp1606
F0.0012382686641795187
s(g8
S'away.'
p1607
tp1608
F-0.0011056681679472657
s(g1
g199
tp1609
F0.0015397636654131213
s(g1
S'probably'
p1610
tp1611
F0.00047261368825425625
s(g8
S'<cwg-dated-1030375036.42fb92@deepeddy.com>'
p1612
tp1613
F-0.0006822392504639519
s(g1
g719
tp1614
F-0.0012382686643746502
s(g1
S'32)'
p1615
tp1616
F0.00047261368825425625
s(g1
S'$pick(ids)'
p1617
tp1618
F0.00047261368825425625
s(g1
S'jog'
p1619
tp1620
F-0.0005603166503732955
s(g1
S'style'
p1621
tp1622
F-0.0005603166503732955
s(g8
S'secret'
p1623
tp1624
F0.0005603166503176598
s(g8
S'may'
p1625
tp1626
F0.007661387860491838
s(g1
S'box'
p1627
tp1628
F-0.0012382686643746502
s(g8
g211
tp1629
F-0.0006822392504639519
s(g8
S'[202.63.165.34]'
p1630
tp1631
F0.0012382686641795187
s(g1
S'removed'
p1632
tp1633
F-0.0005567042822477318
s(g1
S'for'
p1634
tp1635
F0.004367655433977246
s(g8
S'("uplevel"'
p1636
tp1637
F-0.0009452273780587113
s(g8
g1497
tp1638
F0.0005603166503176598
s(g1
S'expressed'
p1639
tp1640
F-0.0012382686643746502
s(g1
S'capsules?'
p1641
tp1642
F-0.0005567042822477318
s(g8
S'[193.120.211.219])'
p1643
tp1644
F0.00027769787229649343
s(g8
S'19:30:19'
p1645
tp1646
F-0.000512492695274234
s(g1
S'icon'
p1647
tp1648
F0.00047261368825425625
s(g1
S'-0400'
p1649
tp1650
F0.013980164916969825
s(g1
S'they'
p1651
tp1652
F-0.0016431179448356701
s(g8
S'problem,<br>'
p1653
tp1654
F0.0005603166503176598
s(g1
S'metabolism.'
p1655
tp1656
F-0.0005567042822477318
s(g8
S'ce.'
p1657
tp1658
F3.9879006244336607e-05
s(g1
S'"busycursorhack"'
p1659
tp1660
F0.00047261368825425625
s(g1
S'"msgchange'
p1661
tp1662
F0.00047261368825425625
s(g1
S'7bit'
p1663
tp1664
F0.0017480284108613404
s(g8
S'something'
p1665
tp1666
F0.0007656549747190989
s(g8
S'"more"'
p1667
tp1668
F-0.0004726136890293556
s(g1
g1252
tp1669
F0.0033170045028754827
s(g1
S'years.'
p1670
tp1671
F-0.0012382686643746502
s(g1
S'think'
p1672
tp1673
F0.0017879074179261993
s(g8
S'home'
p1674
tp1675
F0.0005603166503176598
s(g1
S'"busy'
p1676
tp1677
F0.00047261368825425625
s(g8
S'zip'
p1678
tp1679
F0.0011170209329615997
s(g1
S'element'
p1680
tp1681
F0.00047261368825425625
s(g1
S'deliver'
p1682
tp1683
F-0.0012382686643746502
s(g8
S'"tkbuttonup'
p1684
tp1685
F-0.0004726136890293556
s(g1
S'that'
p1686
tp1687
F-0.0021951441272824454
s(g1
S'g4d3kce15097'
p1688
tp1689
F-0.0005603166503732955
s(g8
g280
tp1690
F-0.0004726136890293556
s(g8
g1374
tp1691
F0.006191343320561766
s(g1
g1535
tp1692
F0.0006423602445522268
s(g1
S'pick'
p1693
tp1694
F0.0023630684410492625
s(g8
S'recently'
p1695
tp1696
F0.0012382686641795187
s(g8
S'going'
p1697
tp1698
F0.0011127336948459608
s(g8
S'are'
p1699
tp1700
F0.006127866141289078
s(g1
g1559
tp1701
F-0.0011170209326218485
s(g8
S'3215'
p1702
tp1703
F0.0005603166503176598
s(g1
S'weight-loss'
p1704
tp1705
F-0.0011134085644977764
s(g1
S'name'
p1706
tp1707
F0.002100080315095051
s(g1
S'1'
p1708
tp1709
F-0.0005567042822477318
s(g8
g557
tp1710
F-0.0010222524432002575
s(g1
S'2.5,'
p1711
tp1712
F0.00047261368825425625
s(g8
S'g7lfn3y24603'
p1713
tp1714
F-0.0011056681679472657
s(g1
g1561
tp1715
F-0.0012382686643746502
s(g1
S'am'
p1716
tp1717
F-0.00027769787211492925
s(g1
S'</body>'
p1718
tp1719
F-0.0011170209326218485
s(g1
S'mh'
p1720
tp1721
F0.0038346251695497995
s(g1
S'ability'
p1722
tp1723
F-0.0005567042822477318
s(g1
S'person'
p1724
tp1725
F0.0013644785013920164
s(g1
S'pre'
p1726
tp1727
F0.0006822392506960082
s(g8
S'#0'
p1728
tp1729
F-0.0009452273780587113
s(g1
g1599
tp1730
F-0.0022340418652529483
s(g8
S'sequence"'
p1731
tp1732
F-0.0004726136890293556
s(g8
S'amusing'
p1733
tp1734
F-0.0006822392504639519
s(g8
S'4132'
p1735
tp1736
F0.0005567042822851042
s(g8
S'apparent'
p1737
tp1738
F-0.0004726136890293556
s(g1
S'fact'
p1739
tp1740
F-0.0012382686643746502
s(g1
S'"new'
p1741
tp1742
F0.00047261368825425625
s(g1
S'mail,'
p1743
tp1744
F-0.0011170209326218485
s(g8
S'11:22:28'
p1745
tp1746
F-0.0011056681679472657
s(g1
g350
tp1747
F-0.00027769787211492925
s(g8
g1619
tp1748
F0.0005603166503176598
s(g8
g925
tp1749
F-0.0011548529394898505
s(g1
S'300'
p1750
tp1751
F-0.0005567042822477318
s(g8
S'starts,'
p1752
tp1753
F-0.0004726136890293556
s(g8
S'country'
p1754
tp1755
F0.0022340418631939503
s(g1
g977
tp1756
F-0.0005567042822477318
s(g8
g267
tp1757
F0.0012382686641795187
s(g8
S'v1.0.7'
p1758
tp1759
F-0.0011056681679472657
s(g8
S'int($minlineno+1+($msgid-$minmsgid)*($maxlineno-$minlineno-2)/($maxmsgid-$minmsgid))"'
p1760
tp1761
F-0.000512492695274234
s(g1
S'uid'
p1762
tp1763
F0.0006423602445522268
s(g1
S'have'
p1764
tp1765
F-7.496201044721959e-05
s(g1
S'foreign'
p1766
tp1767
F-0.0011134085644977764
s(g1
S'cannot'
p1768
tp1769
F-0.0024765373287493004
s(g8
S'--==_exmh_-195849857p'
p1770
tp1771
F7.975801248867321e-05
s(g1
S'form'
p1772
tp1773
F-0.0012382686643746502
s(g8
S'>'
p1774
tp1775
F-0.010878199589567098
s(g8
S'irish'
p1776
tp1777
F0.0024765373283590375
s(g1
S'information!'
p1778
tp1779
F-0.0011170209326218485
s(g8
g1670
tp1780
F0.0012382686641795187
s(g1
g1370
tp1781
F0.00047261368825425625
s(g1
S'price'
p1782
tp1783
F-0.0005567042822477318
s(g1
S'with'
p1784
tp1785
F0.009297226733240549
s(g8
S'tmda/0.57'
p1786
tp1787
F-0.0006423602442156667
s(g1
S'easier'
p1788
tp1789
F-0.0023552895969971817
s(g8
g1680
tp1790
F-0.0004726136890293556
s(g8
g407
tp1791
F8.409059333485612e-05
s(g8
S'hour'
p1792
tp1793
F0.0022304294951702814
s(g8
S'created).'
p1794
tp1795
F-0.0004726136890293556
s(g1
S'be'
p1796
tp1797
F-0.01069723191853835
s(g1
S'now'
p1798
tp1799
F0.0007734338201355415
s(g1
S'bettyjagessar.com'
p1800
tp1801
F-0.0037148059931212804
s(g1
S'controls'
p1802
tp1803
F-0.0005567042822477318
s(g8
S'every'
p1804
tp1805
F0.0016737252138999091
s(g8
S'protect'
p1806
tp1807
F0.0016809499507868214
s(g8
g1026
tp1808
F0.0011170209329615997
s(g8
S'<ilug-admin@linux.ie>'
p1809
tp1810
F0.0012382686641795187
s(g8
g424
tp1811
F0.004468083732598751
s(g8
g1693
tp1812
F-0.0023630684451225446
s(g1
S'within'
p1813
tp1814
F0.008896123529681627
s(g8
g1409
tp1815
F0.0005567042822851042
s(g1
S'arm'
p1816
tp1817
F0.00047261368825425625
s(g8
S'foods'
p1818
tp1819
F0.0005567042822851042
s(g1
S'have<br>'
p1820
tp1821
F-0.0005603166503732955
s(g8
S'personal'
p1822
tp1823
F0.0005603166503176598
s(g8
S'diet.'
p1824
tp1825
F0.0005567042822851042
s(g1
S'appearance'
p1826
tp1827
F0.00047261368825425625
s(g8
g581
tp1828
F0.0012382686641795187
s(g8
g1031
tp1829
F0.00027769787229649343
s(g8
S"users'"
p1830
tp1831
F0.0024765373283590375
s(g1
S'making'
p1832
tp1833
F0.00047261368825425625
s(g1
S'protection,'
p1834
tp1835
F-0.0005603166503732955
s(g8
g1430
tp1836
F-0.005805762703225975
s(g8
g737
tp1837
F0.0005603166503176598
s(g8
S'gnupg'
p1838
tp1839
F-0.0017480284121595257
s(g8
S'https://listman.redhat.com/mailman/listinfo/exmh-workers'
p1840
tp1841
F-0.0022206421012130164
s(g8
S'26730'
p1842
tp1843
F-0.0006822392504639519
s(g1
S'note*****'
p1844
tp1845
F-0.0011170209326218485
s(g1
g1060
tp1846
F0.00047261368825425625
s(g1
g1713
tp1847
F0.0011056681677741227
s(g8
S'range'
p1848
tp1849
F-0.0004726136890293556
s(g1
S'sure'
p1850
tp1851
F0.0009452273765449016
s(g1
S'x-mailman-version:'
p1852
tp1853
F0.0010222524420174996
s(g8
S'ever'
p1854
tp1855
F-0.000938836717166649
s(g8
g463
tp1856
F0.003351062798881549
s(g8
g1072
tp1857
F0.0012382686641795187
s(g1
S'capsules.'
p1858
tp1859
F-0.0016701128467466945
s(g8
S'(some'
p1860
tp1861
F-0.0004726136890293556
s(g8
S'11:48:09'
p1862
tp1863
F0.0012382686641795187
s(g8
S'errors-to:'
p1864
tp1865
F-0.0010222524432002575
s(g8
S'one-time'
p1866
tp1867
F0.0012382686641795187
s(g1
g479
tp1868
F0.00047261368825425625
s(g1
S'{eval'
p1869
tp1870
F0.00047261368825425625
s(g1
g1463
tp1871
F0.00047261368825425625
s(g1
g1096
tp1872
F-0.0011170209326218485
s(g1
S'protection!'
p1873
tp1874
F-0.0005603166503732955
s(g1
S'23:37:59'
p1875
tp1876
F-0.0012382686643746502
s(g1
S'phobos.labs.netnoteinc.com'
p1877
tp1878
F0.0010222524420174996
s(g1
S'american<br>'
p1879
tp1880
F-0.0005603166503732955
s(g8
S'+0700'
p1881
tp1882
F-0.0021798383300681763
s(g1
S'1.0'
p1883
tp1884
F-9.476849074704935e-05
s(g1
g1104
tp1885
F0.0006423602445522268
s(g8
S'claimed'
p1886
tp1887
F0.0012382686641795187
s(g1
S'abandoned'
p1888
tp1889
F-0.0012382686643746502
s(g8
S'linux'
p1890
tp1891
F0.0024765373283590375
s(g8
S'interested:'
p1892
tp1893
F0.0011206333006353196
s(g1
g442
tp1894
F-0.009149595787851935
s(g8
S'main'
p1895
tp1896
F-0.0004726136890293556
s(g8
g1484
tp1897
F0.0005567042822851042
s(g1
S'absorber'
p1898
tp1899
F-0.0011134085644977764
s(g1
S'right'
p1900
tp1901
F-0.001156899938625449
s(g8
S's'
p1902
tp1903
F0.0016701128458752417
s(g8
S'boundary="==_exmh_31119591p";'
p1904
tp1905
F-0.0011056681679472657
s(g8
S'"msg_show'
p1906
tp1907
F-0.0004726136890293556
s(g8
S"it's"
p1908
tp1909
F0.001676662713700924
s(g8
g1123
tp1910
F0.0005567042822851042
s(g1
g1125
tp1911
F-3.987900642075676e-05
s(g1
S'story.'
p1912
tp1913
F-0.0012382686643746502
s(g8
S'failed'
p1914
tp1915
F0.0012382686641795187
s(g1
g532
tp1916
F-0.0012382686643746502
s(g1
S'04:46:04'
p1917
tp1918
F-0.0005603166503732955
s(g1
g536
tp1919
F-0.0011134085644977764
s(g1
g1158
tp1920
F-0.0005603166503732955
s(g1
S'card'
p1921
tp1922
F-0.0044680837304893
s(g1
g1786
tp1923
F0.0006423602445522268
s(g8
S'smtp'
p1924
tp1925
F-0.004685129400696226
s(g1
S'phone'
p1926
tp1927
F-0.0011170209326218485
s(g8
S'shipping!'
p1928
tp1929
F0.0005603166503176598
s(g8
g1321
tp1930
F0.0005603166503176598
s(g1
S'|'
p1931
tp1932
F0.00351792137943168
s(g8
S'kletnieks'
p1933
tp1934
F-0.0011056681679472657
s(g1
g1525
tp1935
F-0.0005603166503732955
s(g8
g123
tp1936
F9.476848832598665e-05
s(g8
S'x-face-viewer:'
p1937
tp1938
F-0.0011056681679472657
s(g8
S'$11.75)'
p1939
tp1940
F0.0005603166503176598
s(g8
g1499
tp1941
F-0.0017480284121595257
s(g8
S'postal'
p1942
tp1943
F0.0016773375834460546
s(g1
g1822
tp1944
F-0.0005603166503732955
s(g1
g1533
tp1945
F-0.0005567042822477318
s(g8
S'$15.95,'
p1946
tp1947
F0.0005603166503176598
s(g1
S'7ybnby65rpe7w6uwhh5akc4='
p1948
tp1949
F0.0011056681677741227
s(g8
S'esmtp'
p1950
tp1951
F-0.004268240265925807
s(g8
S'hit"'
p1952
tp1953
F-0.0004726136890293556
s(g8
S'(delta.coe.psu.ac.th'
p1954
tp1955
F-0.000512492695274234
s(g1
g1830
tp1956
F-0.0024765373287493004
s(g1
S'(webcust2.hightowertech.com'
p1957
tp1958
F-0.0005567042822477318
s(g8
g1201
tp1959
F0.0011170209329615997
s(g1
S'included'
p1960
tp1961
F-0.0005567042822477318
s(g8
S'--==_exmh_31119591p'
p1962
tp1963
F-0.0022113363358945313
s(g8
g75
tp1964
F-0.0004726136890293556
s(g1
g303
tp1965
F-0.0005603166503732955
s(g1
S'refreshing'
p1966
tp1967
F-0.0012382686643746502
s(g8
S'which'
p1968
tp1969
F-0.0008317584898944084
s(g8
S'overall'
p1970
tp1971
F0.0005567042822851042
s(g1
S'purely'
p1972
tp1973
F0.00047261368825425625
s(g1
g1219
tp1974
F0.0006423602445522268
s(g1
S'mailing,'
p1975
tp1976
F-0.0012382686643746502
s(g8
S'marketing,'
p1977
tp1978
F0.0012382686641795187
s(g8
S'makes'
p1979
tp1980
F0.001113408564385992
s(g1
g595
tp1981
F0.0006822392506960082
s(g8
S'64.0.57.142'
p1982
tp1983
F0.0012382686641795187
s(g1
S'mime-version:'
p1984
tp1985
F-9.476849074704935e-05
s(g8
S'<https://listman.spamassassin.taint.org/mailman/listinfo/exmh-workers>,'
p1986
tp1987
F-0.0045210422148566735
s(g1
S'2002<br>'
p1988
tp1989
F-0.0005567042822477318
s(g8
S'time'
p1990
tp1991
F-0.0022605211074467595
s(g1
S'move'
p1992
tp1993
F0.0006822392506960082
s(g8
S'g72lqwv13294'
p1994
tp1995
F0.0012382686641795187
s(g1
S'i'
p1996
tp1997
F0.010677761064935795
s(g8
S'guns!'
p1998
tp1999
F0.0005603166503176598
s(g8
S'see'
p2000
tp2001
F-0.0003400131927556823
s(g1
g615
tp2002
F0.00047261368825425625
s(g8
S'x-loop:'
p2003
tp2004
F-0.0022605211074467595
s(g1
g1881
tp2005
F0.0021798383292220822
s(g1
S'companies'
p2006
tp2007
F-0.0012382686643746502
s(g1
S'developers'
p2008
tp2009
F0.002260521105506265
s(g8
g1597
tp2010
F0.001113408564385992
s(g8
g1518
tp2011
F-0.0004726136890293556
s(g1
S'ohio'
p2012
tp2013
F-0.0011170209326218485
s(g8
S'metabolism,'
p2014
tp2015
F0.0005567042822851042
s(g8
g632
tp2016
F3.9879006244336607e-05
s(g8
S'with.'
p2017
tp2018
F-0.0004726136890293556
s(g8
g305
tp2019
F-0.02022731632652368
s(g8
S'11:17:49'
p2020
tp2021
F7.975801248867321e-05
s(g8
S'"urgent".'
p2022
tp2023
F-0.0004726136890293556
s(g1
g642
tp2024
F-0.005044108699705139
s(g8
S'delta.cs.mu.oz.au'
p2025
tp2026
F-0.001024985390548468
s(g8
g1617
tp2027
F-0.0004726136890293556
s(g1
S"you've"
p2028
tp2029
F-0.0037148059931212804
s(g8
S'$msgs"'
p2030
tp2031
F-0.0004726136890293556
s(g8
S'cur}"'
p2032
tp2033
F-0.0004726136890293556
s(g8
S'there'
p2034
tp2035
F0.0030475318776484643
s(g1
g1630
tp2036
F-0.0012382686643746502
s(g8
g1368
tp2037
F0.0005567042822851042
s(g8
S'in-reply-to:'
p2038
tp2039
F-0.0022605211074467595
s(g1
g1979
tp2040
F-0.0011134085644977764
s(g8
S'answer.'
p2041
tp2042
F0.0005603166503176598
s(g1
g599
tp2043
F0.0010222524420174996
s(g8
S'protecting'
p2044
tp2045
F0.0011206333006353196
s(g8
S'list'
p2046
tp2047
F-0.0014584223143086301
s(g1
S'to'
p2048
tp2049
F-0.01634372363299311
s(g1
S'^*w5o*!8o9yte[r{e%7(yvrb|qxsryw`7j!`am}m_shaj}f8eb@d^l>brx7io[<!v4-0bvipaxf#-)'
p2050
tp2051
F0.0011056681677741227
s(g8
g1288
tp2052
F-0.0017480284121595257
s(g1
S'href="http://www.geocities.com/realprotection_20022003/">http://www.geocities.com/realprotection_20022003/</a><br>'
p2053
tp2054
F-0.001120633300746591
s(g1
S'delivered-to:'
p2055
tp2056
F0.0032827735494915136
s(g1
S'act'
p2057
tp2058
F-0.0005567042822477318
s(g8
S'(8.9.3/8.9.3)'
p2059
tp2060
F0.0027542352002239445
s(g1
S'07/13/2001'
p2061
tp2062
F0.0028536965790031967
s(g8
S'institutions'
p2063
tp2064
F-0.0006822392504639519
s(g8
S'it.'
p2065
tp2066
F0.0012781476702075194
s(g8
g1960
tp2067
F0.0005567042822851042
s(g8
g636
tp2068
F0.00027900640994173886
s(g8
g1306
tp2069
F0.0016773375834460546
s(g1
S'*****<br>'
p2070
tp2071
F-0.0016737252148785317
s(g8
S'moneyorder____'
p2072
tp2073
F0.0005603166503176598
s(g1
S'08:58:17'
p2074
tp2075
F-0.00027900641013420545
s(g1
S'------------------------------------------------------------'
p2076
tp2077
F-0.0012382686643746502
s(g1
S'amknight@mailexcite.com'
p2078
tp2079
F-0.0005580128202684109
s(g8
S'colouring,'
p2080
tp2081
F-0.0004726136890293556
s(g1
g1311
tp2082
F-0.0005603166503732955
s(g8
S'feel'
p2083
tp2084
F0.0023516772280752505
s(g8
S'fat.<br>'
p2085
tp2086
F0.0005567042822851042
s(g8
S'effective'
p2087
tp2088
F0.002794358512492266
s(g1
g1315
tp2089
F0.002572694001880216
s(g8
g891
tp2090
F0.004953074656718075
s(g1
g1678
tp2091
F-0.0011170209326218485
s(g1
S'this,'
p2092
tp2093
F0.00047261368825425625
s(g1
S'x-delivery-agent:'
p2094
tp2095
F0.0006423602445522268
s(g1
S'e'
p2096
tp2097
F-3.987900642075676e-05
s(g1
S'monster'
p2098
tp2099
F-0.0005603166503732955
s(g8
S'entering'
p2100
tp2101
F-0.0004726136890293556
s(g1
S'type'
p2102
tp2103
F-0.0012382686643746502
s(g8
g440
tp2104
F0.0012382686641795187
s(g1
g1950
tp2105
F0.004268240260731277
s(g8
S'[172.30.0.98])'
p2106
tp2107
F-0.000512492695274234
s(g8
g928
tp2108
F0.003351062798881549
s(g8
S'stay'
p2109
tp2110
F0.0005567042822851042
s(g1
S'last'
p2111
tp2112
F0.00047261368825425625
s(g8
S'above,'
p2113
tp2114
F0.002911993877382024
s(g8
S'+0700,'
p2115
tp2116
F-0.0011056681679472657
s(g1
g499
tp2117
F-0.0013979961378160666
s(g1
g729
tp2118
F0.0010222524420174996
s(g1
S'discussed'
p2119
tp2120
F0.00047261368825425625
s(g8
S'10:17:14'
p2121
tp2122
F-0.0006822392504639519
s(g8
S'protocol="application/pgp-signature"'
p2123
tp2124
F-0.0017480284121595257
s(g8
S'configurations'
p2125
tp2126
F-0.0006822392504639519
s(g8
S'precedence:'
p2127
tp2128
F-0.0010222524432002575
s(g1
S'"time'
p2129
tp2130
F0.0009452273765449016
s(g8
S'finally,'
p2131
tp2132
F0.0012382686641795187
s(g8
S'$show"'
p2133
tp2134
F-0.0009452273780587113
s(g1
g745
tp2135
F-0.0005567042822477318
s(g8
S'.'
p2136
tp2137
F-0.0006423602442156667
s(g1
S'related'
p2138
tp2139
F0.00047261368825425625
s(g8
g1992
tp2140
F-0.0006822392504639519
s(g1
g1982
tp2141
F-0.0012382686643746502
s(g8
S'outstanding'
p2142
tp2143
F-0.0004726136890293556
s(g8
S'find'
p2144
tp2145
F-0.002519331440415518
s(g1
S'mega'
p2146
tp2147
F-0.001120633300746591
s(g8
S'listman.spamassassin.taint.org'
p2148
tp2149
F-0.0045210422148566735
s(g8
S'up,'
p2150
tp2151
F0.0012382686641795187
s(g1
g1366
tp2152
F-0.0007656549765917173
s(g8
g314
tp2153
F0.0005567042822851042
s(g8
S'well'
p2154
tp2155
F-0.0012275907679371824
s(g1
S'clean.'
p2156
tp2157
F0.0006423602445522268
s(g1
S'safely'
p2158
tp2159
F-0.0005567042822477318
s(g1
S'were'
p2160
tp2161
F0.0017879074179261993
s(g8
S'"exmh"'
p2162
tp2163
F-0.0009452273780587113
s(g8
S'secs);'
p2164
tp2165
F-0.0006423602442156667
s(g8
S'"msg_change"'
p2166
tp2167
F-0.0004726136890293556
s(g1
g1356
tp2168
F-0.0012382686643746502
s(g1
g1731
tp2169
F0.00047261368825425625
s(g8
S'[207.95.174.49])'
p2170
tp2171
F0.0005603166503176598
s(g1
S'ask'
p2172
tp2173
F-0.0005603166503732955
s(g1
S'2.5'
p2174
tp2175
F0.0028536965790031967
s(g1
S'___americanexpress<br>'
p2176
tp2177
F-0.0005567042822477318
s(g8
S'yyyy@localhost.netnoteinc.com'
p2178
tp2179
F-0.0010222524432002575
s(g1
S'lies'
p2180
tp2181
F-0.0012382686643746502
s(g8
S'try'
p2182
tp2183
F-0.0004726136890293556
s(g1
S'"eval'
p2184
tp2185
F0.00047261368825425625
s(g1
S'recall'
p2186
tp2187
F0.0006822392506960082
s(g1
S'waa31201'
p2188
tp2189
F-0.0012382686643746502
s(g8
g1750
tp2190
F0.0005567042822851042
s(g1
S'back-stabbed'
p2191
tp2192
F-0.0012382686643746502
s(g1
g805
tp2193
F0.00047261368825425625
s(g8
S'look'
p2194
tp2195
F0.0017949729457777206
s(g1
S'vary'
p2196
tp2197
F0.0006822392506960082
s(g8
g2
tp2198
F-0.0004726136890293556
s(g8
g6
tp2199
F0.0005567042822851042
s(g8
g1423
tp2200
F0.0005603166503176598
s(g1
g2044
tp2201
F-0.001120633300746591
s(g8
g996
tp2202
F0.0048354392941955555
s(g8
S'-0500'
p2203
tp2204
F-0.0011149739332606558
s(g8
S'used'
p2205
tp2206
F-0.00038919796456355835
s(g1
S'days!'
p2207
tp2208
F-0.0005603166503732955
s(g8
g1739
tp2209
F0.0012382686641795187
s(g8
S'borders'
p2210
tp2211
F-0.0004726136890293556
s(g8
g825
tp2212
F0.0012382686641795187
s(g1
S'somewhat'
p2213
tp2214
F0.00047261368825425625
s(g1
g1435
tp2215
F0.00047261368825425625
s(g8
g889
tp2216
F0.0012011115250966454
s(g1
g2065
tp2217
F-0.001278147671237543
s(g1
g648
tp2218
F-0.0011170209326218485
s(g8
S'<mailto:exmh-workers-request@spamassassin.taint.org?subject=help>'
p2219
tp2220
F-0.0022605211074467595
s(g8
S'___debt'
p2221
tp2222
F0.0005567042822851042
s(g1
S'virginia'
p2223
tp2224
F0.0011056681677741227
s(g8
S'absorbed'
p2225
tp2226
F0.0005567042822851042
s(g1
S'http://www.deepeddy.com/~cwg'
p2227
tp2228
F0.0006423602445522268
s(g8
S'management'
p2229
tp2230
F0.0005567042822851042
s(g1
g1774
tp2231
F0.010878200184595378
s(g8
S'fall'
p2232
tp2233
F-0.0004726136890293556
s(g1
S'exmh-workers@redhat.com'
p2234
tp2235
F0.003326310267601495
s(g1
S'[192.12.3.99])'
p2236
tp2237
F0.0006423602445522268
s(g8
S'big!'
p2238
tp2239
F0.0012382686641795187
s(g8
g568
tp2240
F0.0016737252138999091
s(g1
S'application/pgp-signature'
p2241
tp2242
F0.0017480284108613404
s(g1
S'out'
p2243
tp2244
F-0.0006444072438924224
s(g1
S'"pick"'
p2245
tp2246
F0.0006822392506960082
s(g1
S'02'
p2247
tp2248
F-0.0024765373287493004
s(g1
g55
tp2249
F0.00047261368825425625
s(g8
g865
tp2250
F0.0028015832519574526
s(g1
g1792
tp2251
F-0.0022304294971148644
s(g1
S'brief'
p2252
tp2253
F-0.0012382686643746502
s(g8
g1796
tp2254
F0.010697231934172071
s(g1
S'___wildfire'
p2255
tp2256
F-0.0005603166503732955
s(g1
S'such'
p2257
tp2258
F-0.0020039236407673093
s(g8
S'different'
p2259
tp2260
F0.0011170209329615997
s(g1
S'neat)'
p2261
tp2262
F-0.0011170209326218485
s(g8
S'crime.'
p2263
tp2264
F0.0005603166503176598
s(g1
g1474
tp2265
F-0.001120633300746591
s(g1
g2106
tp2266
F0.000512492694989887
s(g1
S'(root@lugh.tuatha.org'
p2267
tp2268
F-0.0012382686643746502
s(g1
S'protection'
p2269
tp2270
F-0.001120633300746591
s(g8
S'<mailto:exmh-workers-request@redhat.com?subject=unsubscribe>'
p2271
tp2272
F-0.0022605211074467595
s(g1
S'spring'
p2273
tp2274
F-0.0005603166503732955
s(g8
S'101)'
p2275
tp2276
F-0.0004726136890293556
s(g8
S'g7lf8fl25844'
p2277
tp2278
F-0.0011056681679472657
s(g1
S'computer'
p2279
tp2280
F-0.00013260049645577896
s(g1
S'had'
p2281
tp2282
F0.002050895543341896
s(g1
g897
tp2283
F-0.0005603166503732955
s(g8
g85
tp2284
F0.0005603166503176598
s(g8
S'major'
p2285
tp2286
F0.0005603166503176598
s(g1
S'<200208211522.g7lfmss0008315@turing-police.cc.vt.edu>'
p2287
tp2288
F0.0011056681677741227
s(g8
g1461
tp2289
F-0.0004726136890293556
s(g1
S'messages,'
p2290
tp2291
F0.00047261368825425625
s(g8
S'567-9807<br>'
p2292
tp2293
F0.0005567042822851042
s(g8
g93
tp2294
F-0.0011056681679472657
s(g8
g2146
tp2295
F0.0011206333006353196
s(g1
S'11:23:06'
p2296
tp2297
F0.0011056681677741227
s(g1
S'senior'
p2298
tp2299
F0.0011056681677741227
s(g8
S'___mastercard<br>'
p2300
tp2301
F0.0005567042822851042
s(g8
S'changed'
p2302
tp2303
F-0.0011548529394898505
s(g8
S'{busyicon'
p2304
tp2305
F-0.0004726136890293556
s(g1
S'people'
p2306
tp2307
F-0.0025599530543109466
s(g1
S'id8dbqe9y68zk9b4h5r0iuiraniqaj0xp6l4dh32pmewnpt5c8+lbbuelqcdh1av'
p2308
tp2309
F-3.987900642075676e-05
s(g8
S'$msgids"'
p2310
tp2311
F-0.0004726136890293556
s(g8
g601
tp2312
F0.0012382686641795187
s(g8
g1512
tp2313
F0.0005603166503176598
s(g8
S'11:03:52'
p2314
tp2315
F0.00027769787229649343
s(g1
S'exmh-workers-admin@spamassassin.taint.org'
p2316
tp2317
F0.004521042213364226
s(g8
S'(8.11.6/8.11.6)'
p2318
tp2319
F-0.0077117802169926
s(g1
S'your'
p2320
tp2321
F-0.007967736631645324
s(g1
S'these'
p2322
tp2323
F-0.0011170209326218485
s(g8
S'(except'
p2324
tp2325
F-0.0006822392504639519
s(g1
S'exist'
p2326
tp2327
F0.00047261368825425625
s(g1
S'374'
p2328
tp2329
F0.0006423602445522268
s(g1
S'honor.'
p2330
tp2331
F-0.0012382686643746502
s(g8
g1873
tp2332
F0.0005603166503176598
s(g8
S'$widgets"'
p2333
tp2334
F-0.0004726136890293556
s(g1
g674
tp2335
F-0.0010385897068913089
s(g8
g2245
tp2336
F-0.0006822392504639519
s(g1
g959
tp2337
F-0.0016701128467466945
s(g1
g1890
tp2338
F-0.0024765373287493004
s(g8
S'natural'
p2339
tp2340
F0.0022268171244680256
s(g8
S'line.</a>'
p2341
tp2342
F0.0005567042822851042
s(g8
g821
tp2343
F0.005827600132028404
s(g8
g2306
tp2344
F0.0025599530543692047
s(g1
S'10:17:47'
p2345
tp2346
F-3.987900642075676e-05
s(g8
g155
tp2347
F0.0012382686641795187
s(g8
g2207
tp2348
F0.0005603166503176598
s(g8
g1778
tp2349
F0.0011170209329615997
s(g8
S'can'
p2350
tp2351
F-0.000510445693469594
s(g8
S'<jm@localhost>;'
p2352
tp2353
F-0.0010222524432002575
s(g8
S'g7lfhnr23317'
p2354
tp2355
F3.9879006244336607e-05
s(g1
S'$10.95'
p2356
tp2357
F-0.0005567042822477318
s(g1
S'aug'
p2358
tp2359
F0.020895212969891597
s(g1
S'labelup'
p2360
tp2361
F0.00047261368825425625
s(g1
S'craving'
p2362
tp2363
F-0.0005567042822477318
s(g1
S'lose'
p2364
tp2365
F-0.0016701128467466945
s(g1
S'sender:'
p2366
tp2367
F0.0010222524420174996
s(g8
S'21'
p2368
tp2369
F-0.029646509493445824
s(g1
S'and'
p2370
tp2371
F-0.022545533849483462
s(g1
S'href="http://www.geocities.com/ultra_weightloss_2002/">http://www.geocities.com/ultra_weightloss_2002/</a><br>'
p2372
tp2373
F-0.0011134085644977764
s(g1
S'(as'
p2374
tp2375
F-0.0022340418652529483
s(g1
g1108
tp2376
F-0.0006480196118587463
s(g8
g183
tp2377
F0.0024765373283590375
s(g1
g1574
tp2378
F0.00047261368825425625
s(g1
S'bottle'
p2379
tp2380
F-0.0005567042822477318
s(g1
S'life!<br>'
p2381
tp2382
F-0.0005603166503732955
s(g8
S'06'
p2383
tp2384
F0.0012382686641795187
s(g8
g1015
tp2385
F0.0012382686641795187
s(g1
S'but'
p2386
tp2387
F0.0013337504718195466
s(g1
S'"sel"'
p2388
tp2389
F0.0006822392506960082
s(g1
S'time:6:25:49'
p2390
tp2391
F-0.00027900641013420545
s(g8
g1570
tp2392
F0.0005603166503176598
s(g8
S'pgp'
p2393
tp2394
F-0.003496056824273435
s(g8
S'lawmakers'
p2395
tp2396
F0.0005603166503176598
s(g1
S'([202.28.97.6])'
p2397
tp2398
F0.000512492694989887
s(g1
S'considered'
p2399
tp2400
F-0.0012382686643746502
s(g1
S'truth'
p2401
tp2402
F-0.0012382686643746502
s(g8
S'___________________________________________________________<br>'
p2403
tp2404
F0.003351062798881549
s(g1
g1578
tp2405
F0.0
s(g8
S'7,'
p2406
tp2407
F0.0005603166503176598
s(g8
S'ffa'
p2408
tp2409
F0.0012382686641795187
s(g1
g228
tp2410
F-3.987900642075676e-05
s(g8
g1106
tp2411
F0.00027769787229649343
s(g1
g1100
tp2412
F-8.409059392236924e-05
s(g1
g1962
tp2413
F0.0022113363355482454
s(g1
S'quality'
p2414
tp2415
F-0.0005603166503732955
s(g8
g1055
tp2416
F-0.0022605211074467595
s(g1
S'"msgshow"'
p2417
tp2418
F0.00047261368825425625
s(g8
g2296
tp2419
F-0.0011056681679472657
s(g1
g1645
tp2420
F0.000512492694989887
s(g1
S'16:18:37'
p2421
tp2422
F-3.987900642075676e-05
s(g1
g1977
tp2423
F-0.0012382686643746502
s(g1
S'also'
p2424
tp2425
F-0.0011463992263066
s(g1
S"i've"
p2426
tp2427
F0.005885520716864778
s(g1
S'exist,'
p2428
tp2429
F0.00047261368825425625
s(g1
S'20'
p2430
tp2431
F0.0011548529398975327
s(g8
S'free!'
p2432
tp2433
F0.0012382686641795187
s(g1
g1986
tp2434
F0.004521042213364226
s(g8
S'list-subscribe:'
p2435
tp2436
F-0.0022605211074467595
s(g8
S'powerful,'
p2437
tp2438
F0.0005567042822851042
s(g1
S'mlm.'
p2439
tp2440
F-0.0012382686643746502
s(g8
S'program'
p2441
tp2442
F0.0022268171244680256
s(g8
S'weight'
p2443
tp2444
F0.00334022568698214
s(g8
g2261
tp2445
F0.0011170209329615997
s(g1
S'visit'
p2446
tp2447
F-0.0022340418652529483
s(g8
g1639
tp2448
F0.0012382686641795187
s(g1
g282
tp2449
F-0.0012382686643746502
s(g1
S'[66.187.233.211])'
p2450
tp2451
F0.002260521105506265
s(g8
S'most'
p2452
tp2453
F0.007986316266061045
s(g1
S'like'
p2454
tp2455
F-0.0008497455702323136
s(g1
S'member'
p2456
tp2457
F-0.0012382686643746502
s(g1
g2020
tp2458
F-7.975801284151352e-05
s(g1
S'</font>'
p2459
tp2460
F-0.0016773375829980354
s(g8
S'chris'
p2461
tp2462
F-0.004700094535318252
s(g1
S'ages'
p2463
tp2464
F0.00047261368825425625
s(g1
g475
tp2465
F-0.0012382686643746502
s(g8
S'btw,'
p2466
tp2467
F-0.0006822392504639519
s(g1
S'helps.'
p2468
tp2469
F0.00047261368825425625
s(g8
g1131
tp2470
F0.0012382686641795187
s(g1
S'useful'
p2471
tp2472
F0.0009452273765449016
s(g8
g290
tp2473
F3.9879006244336607e-05
s(g8
g2360
tp2474
F-0.0004726136890293556
s(g8
S'"unseen"'
p2475
tp2476
F-0.002782319568056008
s(g1
g1258
tp2477
F-0.0024765373287493004
s(g1
S'--'
p2478
tp2479
F0.0005097597471718168
s(g1
g316
tp2480
F-0.0012382686643746502
s(g8
g418
tp2481
F-0.0004726136890293556
s(g8
S'{busycursor'
p2482
tp2483
F-0.0004726136890293556
s(g1
S'*not*'
p2484
tp2485
F0.0006822392506960082
s(g8
g1706
tp2486
F-0.0021000803175775956
s(g1
S'friends,'
p2487
tp2488
F-0.0012382686643746502
s(g1
g2059
tp2489
F-0.0027542352008733083
s(g8
g103
tp2490
F0.012804198691943205
s(g1
S'criminal'
p2491
tp2492
F-0.0005603166503732955
s(g1
S'links'
p2493
tp2494
F-0.0012382686643746502
s(g1
S'special'
p2495
tp2496
F-0.0005567042822477318
s(g8
S'z-force'
p2497
tp2498
F0.0005603166503176598
s(g8
S'good'
p2499
tp2500
F0.0034650857907317055
s(g8
g2379
tp2501
F0.0005567042822851042
s(g1
g35
tp2502
F-0.0005567042822477318
s(g1
g51
tp2503
F-0.0012382686643746502
s(g1
S'hit-1)*(3868-1-2)/(4878-1))"'
p2504
tp2505
F0.00047261368825425625
s(g1
S'received:'
p2506
tp2507
F0.01236825089617279
s(g8
g2074
tp2508
F0.00027900640994173886
s(g8
S'remain'
p2509
tp2510
F-0.0004726136890293556
s(g1
g1173
tp2511
F-0.0005567042822477318
s(g8
S'"if'
p2512
tp2513
F-0.0004726136890293556
s(g8
S'courage'
p2514
tp2515
F0.0012382686641795187
s(g8
S'processing.'
p2516
tp2517
F0.0005567042822851042
s(g8
S'_______________________________________________'
p2518
tp2519
F-0.0022206421012130164
s(g1
g1728
tp2520
F0.0009452273765449016
s(g1
S'gladly'
p2521
tp2522
F-0.0011170209326218485
s(g8
S'processed'
p2523
tp2524
F-0.0006423602442156667
s(g8
g2094
tp2525
F-0.0006423602442156667
s(g1
S'service.'
p2526
tp2527
F-0.0005603166503732955
s(g8
S'honestly'
p2528
tp2529
F0.0012382686641795187
s(g1
g1181
tp2530
F-0.001120633300746591
s(g8
S'15:17:48'
p2531
tp2532
F3.9879006244336607e-05
s(g1
g1185
tp2533
F0.00047261368825425625
s(g1
S'key'
p2534
tp2535
F0.00047261368825425625
s(g8
g1741
tp2536
F-0.0004726136890293556
s(g8
S'194303f5bc'
p2537
tp2538
F3.9879006244336607e-05
s(g1
g1296
tp2539
F-0.0016737252148785317
s(g1
S'(localhost'
p2540
tp2541
F0.0026404133070339507
s(g8
S'$msgid'
p2542
tp2543
F-0.0004726136890293556
s(g1
S'nmh-1.0.4+dev'
p2544
tp2545
F0.0011056681677741227
s(g8
S'effects.<br>'
p2546
tp2547
F0.0005567042822851042
s(g1
S'as<br>'
p2548
tp2549
F-0.0005603166503732955
s(g8
S'"1'
p2550
tp2551
F-0.0004726136890293556
s(g8
g1142
tp2552
F-0.0004726136890293556
s(g1
S'information.'
p2553
tp2554
F-0.0024765373287493004
s(g8
S'valdis.kletnieks@vt.edu,'
p2555
tp2556
F-0.0006822392504639519
s(g1
g1165
tp2557
F0.00012192260033598625
s(g1
S'remaining'
p2558
tp2559
F0.00047261368825425625
s(g1
g1225
tp2560
F-0.0011170209326218485
s(g8
S'only'
p2561
tp2562
F-0.001037096816491994
s(g1
g2136
tp2563
F0.0006423602445522268
s(g1
g1902
tp2564
F-0.0016701128467466945
s(g1
g2523
tp2565
F0.0006423602445522268
s(g8
g299
tp2566
F0.0012382686641795187
s(g8
g1244
tp2567
F0.0005603166503176598
s(g1
S'folders'
p2568
tp2569
F0.00047261368825425625
s(g1
g107
tp2570
F-0.001794972946623001
s(g8
S'<1028311679.886@0.57.142>'
p2571
tp2572
F0.0012382686641795187
s(g8
g2156
tp2573
F-0.0006423602442156667
s(g1
S'replace'
p2574
tp2575
F0.000512492694989887
s(g1
g1254
tp2576
F-0.001120633300746591
s(g8
S'list-archive:'
p2577
tp2578
F-0.0022605211074467595
s(g1
g416
tp2579
F-0.002564240290065763
s(g8
g1784
tp2580
F-0.009297226958625188
s(g8
g1788
tp2581
F0.0023552895962691135
s(g1
S'just'
p2582
tp2583
F0.002279652717896502
s(g1
S'need'
p2584
tp2585
F-0.0017985853147548265
s(g8
S'4862'
p2586
tp2587
F-0.0004726136890293556
s(g1
S'outside.'
p2588
tp2589
F-0.0005603166503732955
s(g8
g21
tp2590
F-0.000512492695274234
s(g8
g586
tp2591
F0.0005567042822851042
s(g1
S'gives'
p2592
tp2593
F0.00047261368825425625
s(g8
S'half'
p2594
tp2595
F-0.0004726136890293556
s(g8
S'#1'
p2596
tp2597
F0.0005567042822851042
s(g1
g436
tp2598
F-0.0005603166503732955
s(g8
g1766
tp2599
F0.001113408564385992
s(g1
g1806
tp2600
F-0.0016809499511218808
s(g1
g2437
tp2601
F-0.0005567042822477318
s(g8
S'micalg=pgp-sha1;'
p2602
tp2603
F-0.0017480284121595257
s(g8
g1875
tp2604
F0.0012382686641795187
s(g8
S'tx'
p2605
tp2606
F-0.0006423602442156667
s(g8
S'always'
p2607
tp2608
F-0.0011548529394898505
s(g8
S'numerous'
p2609
tp2610
F0.0012382686641795187
s(g8
g1282
tp2611
F-0.0009794470128833212
s(g1
S'2002!'
p2612
tp2613
F-0.0022340418652529483
s(g1
g1818
tp2614
F-0.0005567042822477318
s(g1
S'body.'
p2615
tp2616
F-0.0005567042822477318
s(g8
S'8)'
p2617
tp2618
F-0.0009452273780587113
s(g1
g2475
tp2619
F0.0027823195658309556
s(g8
S'window,'
p2620
tp2621
F-0.0004726136890293556
s(g8
S'sweets.<br>'
p2622
tp2623
F0.0005567042822851042
s(g8
g2493
tp2624
F0.0012382686641795187
s(g8
S'11:23:55'
p2625
tp2626
F-0.0011056681679472657
s(g8
S'd909c3efde'
p2627
tp2628
F-0.0011056681679472657
s(g1
S'([127.0.0.1])'
p2629
tp2630
F0.0006423602445522268
s(g1
S'visiting'
p2631
tp2632
F0.00047261368825425625
s(g8
S'15:17:46'
p2633
tp2634
F7.975801248867321e-05
s(g8
g1294
tp2635
F-0.0011056681679472657
s(g1
S'occur'
p2636
tp2637
F0.0009452273765449016
s(g1
S'supply!'
p2638
tp2639
F-0.0005567042822477318
s(g1
S'*'
p2640
tp2641
F-0.007811921792121296
s(g1
g181
tp2642
F-0.008304137455393271
s(g1
g2512
tp2643
F0.00047261368825425625
s(g1
g963
tp2644
F-0.0011134085644977764
s(g8
S'loss'
p2645
tp2646
F0.0016701128458752417
s(g1
S'(one'
p2647
tp2648
F-0.001120633300746591
s(g1
g885
tp2649
F-0.0012382686643746502
s(g1
g1864
tp2650
F0.0010222524420174996
s(g8
S'that,'
p2651
tp2652
F-0.0006822392504639519
s(g8
g2372
tp2653
F0.001113408564385992
s(g8
g1877
tp2654
F-0.0010222524432002575
s(g8
S'"uplevel'
p2655
tp2656
F-0.0009452273780587113
s(g8
g490
tp2657
F0.0005567042822851042
s(g1
g15
tp2658
F-0.0033510627978591435
s(g1
S'[172.16.52.254])'
p2659
tp2660
F0.002260521105506265
s(g8
g2273
tp2661
F0.0005603166503176598
s(g1
S'version'
p2662
tp2663
F0.0034960568240369684
s(g8
g1343
tp2664
F-0.0004726136890293556
s(g1
S'"ftoc_pickmsgs"'
p2665
tp2666
F0.00047261368825425625
s(g8
S'countries!'
p2667
tp2668
F0.0005567042822851042
s(g8
S'{busycursorhack'
p2669
tp2670
F-0.0004726136890293556
s(g8
S'looks'
p2671
tp2672
F-0.0004726136890293556
s(g1
g528
tp2673
F0.0006423602445522268
s(g1
S'into'
p2674
tp2675
F-8.409059392236924e-05
s(g8
g226
tp2676
F0.0012382686641795187
s(g8
S'well...'
p2677
tp2678
F-0.0004726136890293556
s(g8
S'jul'
p2679
tp2680
F0.0011170209329615997
s(g1
S'plus'
p2681
tp2682
F-0.0016701128467466945
s(g1
S'labeldown'
p2683
tp2684
F0.00047261368825425625
s(g8
S'college'
p2685
tp2686
F0.0005603166503176598
s(g1
S'could,'
p2687
tp2688
F0.00047261368825425625
s(g8
S'program,'
p2689
tp2690
F0.0005567042822851042
s(g1
g831
tp2691
F-0.0012382686643746502
s(g8
S'background'
p2692
tp2693
F-0.0014178410670673788
s(g1
S'bunch'
p2694
tp2695
F0.00047261368825425625
s(g8
g261
tp2696
F0.0005603166503176598
s(g1
S'smtprs'
p2697
tp2698
F-0.0005603166503732955
s(g1
g2577
tp2699
F0.002260521105506265
s(g1
S'g7lf3ql24555'
p2700
tp2701
F-3.987900642075676e-05
s(g8
S'running'
p2702
tp2703
F-0.0004726136890293556
s(g8
S'17)'
p2704
tp2705
F-0.0004726136890293556
s(g1
S'loved'
p2706
tp2707
F-0.0016809499511218808
s(g8
g1931
tp2708
F-0.0035179213846392218
s(g1
g270
tp2709
F-0.0005603166503732955
s(g1
S'nothing'
p2710
tp2711
F-0.0005603166503732955
s(g1
g1175
tp2712
F-0.0005603166503732955
s(g1
S'11:03:51'
p2713
tp2714
F-0.00027769787211492925
s(g8
g1447
tp2715
F0.0005603166503176598
s(g8
S'<jm@jmason.org>;'
p2716
tp2717
F0.0011170209329615997
s(g1
S'id8dbqe9y676k9b4h5r0iuirat/raj9huatfeblhluu/vhfc1gwy3x+yywcgh0xf'
p2718
tp2719
F0.0006822392506960082
s(g1
g2607
tp2720
F0.0011548529398975327
s(g8
S'hoping'
p2721
tp2722
F-0.0004726136890293556
s(g1
g1699
tp2723
F-0.006127866148502035
s(g1
S'51)'
p2724
tp2725
F0.00047261368825425625
s(g8
S'expression'
p2726
tp2727
F-0.0004726136890293556
s(g8
S'background?'
p2728
tp2729
F-0.0004726136890293556
s(g8
S'localhost'
p2730
tp2731
F-0.0033292253732658764
s(g8
g1948
tp2732
F-0.0011056681679472657
s(g1
g1952
tp2733
F0.00047261368825425625
s(g8
g47
tp2734
F0.0005567042822851042
s(g8
S'http://www.vircio.com'
p2735
tp2736
F-0.0006423602442156667
s(g1
S'changes)'
p2737
tp2738
F0.00047261368825425625
s(g8
S'11:20:01'
p2739
tp2740
F-0.0006822392504639519
s(g8
S'href="mailto:ultratrimnow2001@aol.com">ultratrimnow2001@aol.com</a>'
p2741
tp2742
F0.001113408564385992
s(g8
g1308
tp2743
F0.0012382686641795187
s(g1
g2352
tp2744
F0.0010222524420174996
s(g8
g2487
tp2745
F0.0012382686641795187
s(g1
g23
tp2746
F-0.002943772181553402
s(g1
S'beneficial'
p2747
tp2748
F-0.0012382686643746502
s(g8
S'diet***'
p2749
tp2750
F0.0005567042822851042
s(g1
S"won't"
p2751
tp2752
F-0.0004347816818537938
s(g8
g923
tp2753
F0.0005567042822851042
s(g1
g1824
tp2754
F-0.0005567042822477318
s(g1
g2627
tp2755
F0.0011056681677741227
s(g8
S'11:20:12'
p2756
tp2757
F3.9879006244336607e-05
s(g1
S'x-mailer:'
p2758
tp2759
F0.0017480284108613404
s(g8
g2370
tp2760
F0.022545534288708285
s(g8
S'x-beenthere:'
p2761
tp2762
F-0.0010222524432002575
s(g8
g1444
tp2763
F-0.0004726136890293556
s(g8
g41
tp2764
F0.0005567042822851042
s(g1
S'digestion.<br>'
p2765
tp2766
F-0.0005567042822477318
s(g8
g43
tp2767
F0.0005567042822851042
s(g1
g2452
tp2768
F-0.007986316268531121
s(g1
S'waa31224;'
p2769
tp2770
F-0.0012382686643746502
s(g8
g617
tp2771
F-0.0004726136890293556
s(g8
g330
tp2772
F-0.000512492695274234
s(g8
S'clumsy'
p2773
tp2774
F-0.0004726136890293556
s(g8
g2381
tp2775
F0.0005603166503176598
s(g8
S'[64.0.57.142]'
p2776
tp2777
F0.0012382686641795187
s(g8
S'ultratrim'
p2778
tp2779
F0.0016701128458752417
s(g1
g161
tp2780
F0.00047261368825425625
s(g1
S'(root@localhost'
p2781
tp2782
F-0.0012382686643746502
s(g8
g2388
tp2783
F-0.0006822392504639519
s(g1
g2000
tp2784
F0.00034001319207124006
s(g1
S'g7lfhiy23207'
p2785
tp2786
F0.0006822392506960082
s(g8
S'letter'
p2787
tp2788
F0.003714805993052755
s(g1
S'defined.'
p2789
tp2790
F0.00047261368825425625
s(g8
S'{'
p2791
tp2792
F-0.0014178410670673788
s(g1
g67
tp2793
F-0.0016701128467466945
s(g8
S'"msgchange"'
p2794
tp2795
F-0.0004726136890293556
s(g1
g356
tp2796
F0.0006822392506960082
s(g8
S'name______________________________________________'
p2797
tp2798
F0.0011170209329615997
s(g8
g2399
tp2799
F0.0012382686641795187
s(g1
S'exmh-workers@listman.spamassassin.taint.org'
p2800
tp2801
F0.002260521105506265
s(g1
S'seem'
p2802
tp2803
F-8.770296129449921e-05
s(g8
g2615
tp2804
F0.0005567042822851042
s(g8
S'make'
p2805
tp2806
F0.0006444072452149325
s(g1
S'more,'
p2807
tp2808
F0.00047261368825425625
s(g1
g662
tp2809
F-0.0005567042822477318
s(g8
g619
tp2810
F0.0005567042822851042
s(g8
g2028
tp2811
F0.003714805993052755
s(g1
g2072
tp2812
F-0.0005603166503732955
s(g1
g89
tp2813
F-0.0005603166503732955
s(g8
S'written'
p2814
tp2815
F-0.0004726136890293556
s(g1
g680
tp2816
F0.0009452273765449016
s(g8
g2050
tp2817
F-0.0011056681679472657
s(g1
g383
tp2818
F0.0009452273765449016
s(g1
S'g4ga3od28650'
p2819
tp2820
F-0.00027769787211492925
s(g1
g1506
tp2821
F0.0006822392506960082
s(g1
g113
tp2822
F-0.0037148059931212804
s(g1
g265
tp2823
F-0.0005567042822477318
s(g8
S'error'
p2824
tp2825
F-0.0004726136890293556
s(g8
S'orders,'
p2826
tp2827
F0.0005567042822851042
s(g8
S'16:24:08'
p2828
tp2829
F-0.0011056681679472657
s(g8
S'word'
p2830
tp2831
F0.0005567042822851042
s(g8
g403
tp2832
F0.0005567042822851042
s(g1
S'profile'
p2833
tp2834
F0.0006822392506960082
s(g8
S'wed'
p2835
tp2836
F-0.001469022001898138
s(g1
g705
tp2837
F-3.987900642075676e-05
s(g1
g2080
tp2838
F0.00047261368825425625
s(g8
S'create'
p2839
tp2840
F-0.0006822392504639519
s(g8
S'included!'
p2841
tp2842
F0.0005567042822851042
s(g8
S'join'
p2843
tp2844
F0.0016809499507868214
s(g1
S'13)'
p2845
tp2846
F0.00047261368825425625
s(g8
S'[198.82.160.121])'
p2847
tp2848
F-0.0011056681679472657
s(g8
g2092
tp2849
F-0.0004726136890293556
s(g1
g145
tp2850
F-0.0005567042822477318
s(g1
g430
tp2851
F-0.00037645701226876317
s(g1
g1378
tp2852
F-0.0012382686643746502
s(g8
g432
tp2853
F0.0005603166503176598
s(g1
g2728
tp2854
F0.00047261368825425625
s(g8
S'text/html;'
p2855
tp2856
F0.0011170209329615997
s(g8
S'[list'
p2857
tp2858
F-0.0014178410670673788
s(g8
S'preference,'
p2859
tp2860
F-0.0004726136890293556
s(g1
g1345
tp2861
F-0.0005603166503732955
s(g8
g1541
tp2862
F-0.0006822392504639519
s(g1
g2835
tp2863
F0.0014690220020022139
s(g1
g2113
tp2864
F-0.002911993879258217
s(g1
g163
tp2865
F0.0006822392506960082
s(g1
S'http://www.linux.ie/mailman/listinfo/ilug'
p2866
tp2867
F-0.0012382686643746502
s(g8
g447
tp2868
F-0.0004726136890293556
s(g8
S'austin-jump.vircio.com'
p2869
tp2870
F-0.0012847204884454807
s(g1
S'"busy"'
p2871
tp2872
F0.00047261368825425625
s(g1
S'why'
p2873
tp2874
F-0.003033241611004369
s(g1
S'remains'
p2875
tp2876
F0.00047261368825425625
s(g8
S'handle'
p2877
tp2878
F-0.0004726136890293556
s(g1
S'quite'
p2879
tp2880
F0.00047261368825425625
s(g8
S'less'
p2881
tp2882
F-0.0004726136890293556
s(g1
S'losing'
p2883
tp2884
F-0.0011134085644977764
s(g8
S'products'
p2885
tp2886
F0.0011206333006353196
s(g8
g1572
tp2887
F0.0005567042822851042
s(g8
S'+0530'
p2888
tp2889
F0.0005603166503176598
s(g1
g2773
tp2890
F0.00047261368825425625
s(g8
S'congress,'
p2891
tp2892
F-0.0006423602442156667
s(g8
S'"pick_it"'
p2893
tp2894
F-0.0009452273780587113
s(g8
g318
tp2895
F-0.0017879074184001121
s(g1
g477
tp2896
F0.0011149739328352025
s(g8
S'11:17:18'
p2897
tp2898
F-0.0006822392504639519
s(g8
g2506
tp2899
F-0.012368251085710593
s(g1
S'11:23:04'
p2900
tp2901
F0.0011056681677741227
s(g1
g2518
tp2902
F0.0022206420970882716
s(g1
g611
tp2903
F-0.0005567042822477318
s(g8
g1589
tp2904
F-0.00550427804368621
s(g1
S'version:'
p2905
tp2906
F0.0017480284108613404
s(g8
g542
tp2907
F0.0011170209329615997
s(g8
g332
tp2908
F-0.0006822392504639519
s(g8
S'wait,'
p2909
tp2910
F0.001113408564385992
s(g8
S'name_______________________________________________________<br>'
p2911
tp2912
F0.0011170209329615997
s(g1
S'charset="default"'
p2913
tp2914
F-0.0011170209326218485
s(g8
S'(8.11.2/8.11.2)'
p2915
tp2916
F0.0011170209329615997
s(g8
S'".pick.but.pick'
p2917
tp2918
F-0.0004726136890293556
s(g1
S'(mx1.spamassassin.taint.org'
p2919
tp2920
F0.002260521105506265
s(g8
S'"folder_change'
p2921
tp2922
F-0.0004726136890293556
s(g1
S'$5.00'
p2923
tp2924
F-0.0005567042822477318
s(g8
S'as'
p2925
tp2926
F-0.002706007823348766
s(g8
g809
tp2927
F-0.0017480284121595257
s(g8
S'colour'
p2928
tp2929
F-0.0004726136890293556
s(g1
g2542
tp2930
F0.00047261368825425625
s(g8
S'<font'
p2931
tp2932
F0.0022340418631939503
s(g1
S'reduction'
p2933
tp2934
F-0.0005567042822477318
s(g1
g516
tp2935
F-8.409059392236924e-05
s(g8
g2196
tp2936
F-0.0006822392504639519
s(g1
S'manner.'
p2937
tp2938
F-0.0005567042822477318
s(g8
S'ultra'
p2939
tp2940
F0.001113408564385992
s(g8
S'variety'
p2941
tp2942
F0.0005603166503176598
s(g1
g2205
tp2943
F0.00038919796245830997
s(g8
g1649
tp2944
F-0.013980164899896445
s(g1
S'<b0000178595@203.129.205.5.205.129.203.in-addr.arpa>;'
p2945
tp2946
F-0.0005603166503732955
s(g8
g534
tp2947
F0.0012382686641795187
s(g8
S'id'
p2948
tp2949
F-0.008690901634993541
s(g1
g2655
tp2950
F0.0009452273765449016
s(g8
S'needs'
p2951
tp2952
F-0.0004726136890293556
s(g1
g2219
tp2953
F0.002260521105506265
s(g1
S'w142.z064000057.nyc-ny.dsl.cnc.net'
p2954
tp2955
F-0.0012382686643746502
s(g8
g2223
tp2956
F-0.0011056681679472657
s(g8
S'been'
p2957
tp2958
F-0.000729211153981454
s(g8
S'order...amazing'
p2959
tp2960
F0.0005567042822851042
s(g1
S'(certainly'
p2961
tp2962
F0.00047261368825425625
s(g1
g2571
tp2963
F-0.0012382686643746502
s(g1
S'both'
p2964
tp2965
F-0.0011134085644977764
s(g8
S'follows'
p2966
tp2967
F-0.0004726136890293556
s(g8
g1672
tp2968
F-0.0017879074184001121
s(g1
g2841
tp2969
F-0.0005567042822477318
s(g8
g873
tp2970
F0.0005567042822851042
s(g8
g552
tp2971
F0.0011170209329615997
s(g8
S'$10.00'
p2972
tp2973
F0.0005567042822851042
s(g8
g2584
tp2974
F0.0017985853141561398
s(g1
g2368
tp2975
F0.029646509377391755
s(g8
S'$pick(addtosel)"'
p2976
tp2977
F-0.0004726136890293556
s(g1
S'nmh-1.0.4'
p2978
tp2979
F0.0006423602445522268
s(g1
S'directions'
p2980
tp2981
F-0.0005567042822477318
s(g8
S'tue'
p2982
tp2983
F0.0012382686641795187
s(g8
S'consistently.<br>'
p2984
tp2985
F0.0005567042822851042
s(g8
S'"msgseen"'
p2986
tp2987
F-0.0004726136890293556
s(g1
g2259
tp2988
F-0.0011170209326218485
s(g8
S'msg_markunseen'
p2989
tp2990
F-0.0004726136890293556
s(g1
S'call'
p2991
tp2992
F-0.0012382686643746502
s(g8
g576
tp2993
F-0.0006822392504639519
s(g1
g2605
tp2994
F0.0006423602445522268
s(g1
g1697
tp2995
F-0.0011127336953472913
s(g1
S'down'
p2996
tp2997
F0.00047261368825425625
s(g1
g1192
tp2998
F-0.0005567042822477318
s(g1
S'30'
p2999
tp3000
F-0.0025058235391305183
s(g8
g4
tp3001
F-0.0006423602442156667
s(g1
S'g7lfn4n24610'
p3002
tp3003
F0.0011056681677741227
s(g8
g296
tp3004
F0.0011170209329615997
s(g8
g320
tp3005
F0.0011170209329615997
s(g1
g2625
tp3006
F0.0011056681677741227
s(g1
S'.mh_profile'
p3007
tp3008
F0.0011056681677741227
s(g8
g1858
tp3009
F0.0016701128458752417
s(g1
S'magnet'
p3010
tp3011
F-0.0005567042822477318
s(g8
g933
tp3012
F0.00027900640994173886
s(g8
g1716
tp3013
F0.00027769787229649343
s(g8
S'appetite'
p3014
tp3015
F0.0005567042822851042
s(g1
g2302
tp3016
F0.0011548529398975327
s(g1
g336
tp3017
F0.0006822392506960082
s(g8
g1247
tp3018
F0.004367760553603645
s(g8
S'off'
p3019
tp3020
F0.0006407948754233158
s(g8
S'should'
p3021
tp3022
F-0.0004726136890293556
s(g1
g2499
tp3023
F-0.0034650857933709177
s(g1
S'accept'
p3024
tp3025
F-0.0012382686643746502
s(g1
S'there,'
p3026
tp3027
F0.00047261368825425625
s(g8
g972
tp3028
F0.0005603166503176598
s(g8
g2320
tp3029
F0.00796773662930464
s(g8
g953
tp3030
F-0.0008618116540405434
s(g8
S'forgotten'
p3031
tp3032
F-0.0004726136890293556
s(g1
g2909
tp3033
F-0.0011134085644977764
s(g8
g957
tp3034
F-0.0004726136890293556
s(g8
g2913
tp3035
F0.0011170209329615997
s(g8
S'expiration'
p3036
tp3037
F0.0011170209329615997
s(g8
S'detached'
p3038
tp3039
F-0.0004726136890293556
s(g1
g1737
tp3040
F0.00047261368825425625
s(g8
S'17:03:24'
p3041
tp3042
F0.0005603166503176598
s(g8
S'legal'
p3043
tp3044
F0.0011206333006353196
s(g8
g360
tp3045
F0.005585104665590251
s(g1
g2333
tp3046
F0.00047261368825425625
s(g8
g621
tp3047
F8.409059333485612e-05
s(g1
S'enjoy,'
p3048
tp3049
F-0.0005567042822477318
s(g8
g2659
tp3050
F-0.0022605211074467595
s(g8
g2356
tp3051
F0.0005567042822851042
s(g8
S"here's"
p3052
tp3053
F0.0012382686641795187
s(g1
g880
tp3054
F-0.0005567042822477318
s(g8
S'd96ec3ec31;'
p3055
tp3056
F-0.0006822392504639519
s(g8
g2345
tp3057
F3.9879006244336607e-05
s(g8
g83
tp3058
F0.0005567042822851042
s(g8
g11
tp3059
F0.0011206333006353196
s(g1
S"ouch...i'll"
p3060
tp3061
F-3.987900642075676e-05
s(g1
S'absolutely'
p3062
tp3063
F-0.0005567042822477318
s(g8
S'200,000'
p3064
tp3065
F0.0011206333006353196
s(g1
S'5'
p3066
tp3067
F-0.0005603166503732955
s(g8
g1762
tp3068
F-0.0006423602442156667
s(g1
S'way)'
p3069
tp3070
F0.00047261368825425625
s(g1
S'(emwac'
p3071
tp3072
F-0.0005603166503732955
s(g8
g676
tp3073
F0.00027900640994173886
s(g8
S'"send'
p3074
tp3075
F0.0012382686641795187
s(g1
g29
tp3076
F-0.0012382686643746502
s(g1
S'15'
p3077
tp3078
F-0.0019504277948958282
s(g1
S'___1'
p3079
tp3080
F-0.0005567042822477318
s(g1
S'around'
p3081
tp3082
F0.0011548529398975327
s(g1
g1770
tp3083
F-7.975801284151352e-05
s(g8
S'folder'
p3084
tp3085
F-0.003780909512321455
s(g8
S'value'
p3086
tp3087
F0.0005603166503176598
s(g8
S'spending'
p3088
tp3089
F0.0005603166503176598
s(g1
S'int-mx1.corp.spamassassin.taint.org'
p3090
tp3091
F0.004521042213364226
s(g8
S'munnari.oz.au'
p3092
tp3093
F-0.000512492695274234
s(g1
S'deepeddy.vircio.com'
p3094
tp3095
F0.0006423602445522268
s(g8
S'(listman.spamassassin.taint.org'
p3096
tp3097
F-0.0022605211074467595
s(g1
S'-0000'
p3098
tp3099
F0.002569440980267217
s(g8
g2710
tp3100
F0.0005603166503176598
s(g8
g2713
tp3101
F0.00027769787229649343
s(g8
g61
tp3102
F-0.0004726136890293556
s(g1
S'(gnu/linux)'
p3103
tp3104
F0.0017480284108613404
s(g8
S'either.'
p3105
tp3106
F-0.0006822392504639519
s(g8
S'free'
p3107
tp3108
F0.005146035746835282
s(g8
g139
tp3109
F0.0012382686641795187
s(g8
g143
tp3110
F-0.0004726136890293556
s(g8
S'$12.50,'
p3111
tp3112
F0.0005603166503176598
s(g8
g2724
tp3113
F-0.0004726136890293556
s(g8
g1284
tp3114
F-0.000512492695274234
s(g8
g2629
tp3115
F-0.0006423602442156667
s(g8
g2706
tp3116
F0.0016809499507868214
s(g1
S'mailing'
p3117
tp3118
F0.0022206420970882716
s(g8
S'(un)subscription'
p3119
tp3120
F0.0012382686641795187
s(g8
g2737
tp3121
F-0.0004726136890293556
s(g1
S'than'
p3122
tp3123
F-0.00046844721203405815
s(g1
S'address:'
p3124
tp3125
F-0.0022340418652529483
s(g1
S'34c9$ewd2zex+\\!i1ba\\j{ex+$/v\'jbg#;3_nowwypa"|,i#`r"{n@w>#:{)fxyias7(8t('
p3126
tp3127
F0.0011056681677741227
s(g1
g465
tp3128
F-0.0005603166503732955
s(g8
S'g7lcuil27286;'
p3129
tp3130
F-0.000512492695274234
s(g8
g2414
tp3131
F0.0005603166503176598
s(g8
S'webnote.net'
p3132
tp3133
F0.0005553957445929869
s(g8
g2172
tp3134
F0.0005603166503176598
s(g8
S'___visa<br>'
p3135
tp3136
F0.0005567042822851042
s(g1
g99
tp3137
F-0.0005603166503732955
s(g8
g1083
tp3138
F0.0012382686641795187
s(g1
S'received.'
p3139
tp3140
F-0.0012382686643746502
s(g8
g769
tp3141
F0.0005603166503176598
s(g1
g2083
tp3142
F-0.002351677228881884
s(g1
S'particular'
p3143
tp3144
F0.00047261368825425625
s(g8
g2430
tp3145
F-0.0011548529394898505
s(g1
S'long'
p3146
tp3147
F0.0028058726261549123
s(g8
S'ranmoore@cybertime.net'
p3148
tp3149
F0.0005603166503176598
s(g1
S'inbox'
p3150
tp3151
F0.00047261368825425625
s(g8
g121
tp3152
F-0.0013644785009279039
s(g8
S'thinner!'
p3153
tp3154
F0.0005567042822851042
s(g1
S'$24.95'
p3155
tp3156
F-0.0005567042822477318
s(g1
g2869
tp3157
F0.0012847204879531842
s(g1
g2881
tp3158
F0.00047261368825425625
s(g8
g1869
tp3159
F-0.0004726136890293556
s(g8
S'readily'
p3160
tp3161
F0.0005603166503176598
s(g8
S'</font'
p3162
tp3163
F0.0005567042822851042
s(g8
g2781
tp3164
F0.0012382686641795187
s(g8
S'"busycursorhack'
p3165
tp3166
F-0.0004726136890293556
s(g1
g133
tp3167
F0.0012847204879531842
s(g1
g695
tp3168
F-9.476849074704935e-05
s(g1
g137
tp3169
F-0.0005603166503732955
s(g1
S'emailings.'
p3170
tp3171
F-0.0012382686643746502
s(g8
g1121
tp3172
F0.0012382686641795187
s(g8
g1883
tp3173
F9.476848832598665e-05
s(g8
g2454
tp3174
F0.0008497455702766935
s(g1
g135
tp3175
F-0.005577879926868439
s(g1
g1001
tp3176
F0.002703081637196559
s(g8
S'"int(1+1+(1'
p3177
tp3178
F-0.0004726136890293556
s(g8
S'technology<br>'
p3179
tp3180
F0.0005603166503176598
s(g1
g524
tp3181
F-0.0005603166503732955
s(g8
g2459
tp3182
F0.0016773375834460546
s(g8
g3060
tp3183
F3.9879006244336607e-05
s(g8
S'executing'
p3184
tp3185
F-0.0009452273780587113
s(g1
S'agree'
p3186
tp3187
F-0.0012382686643746502
s(g8
g2919
tp3188
F-0.0022605211074467595
s(g1
g3074
tp3189
F-0.0012382686643746502
s(g8
g247
tp3190
F-0.0012847204884454807
s(g8
g2866
tp3191
F0.0012382686641795187
s(g8
g3079
tp3192
F0.0005567042822851042
s(g8
g2819
tp3193
F0.00027769787229649343
s(g1
S'jm@localhost'
p3194
tp3195
F0.0010222524420174996
s(g1
S'security<br>'
p3196
tp3197
F-0.0005603166503732955
s(g1
S'fatally'
p3198
tp3199
F-0.0012382686643746502
s(g8
g2358
tp3200
F-0.020895213178070735
s(g1
g654
tp3201
F-0.0012382686643746502
s(g8
g855
tp3202
F0.0012382686641795187
s(g1
g3088
tp3203
F-0.0005603166503732955
s(g1
g2824
tp3204
F0.00047261368825425625
s(g8
S'default'
p3205
tp3206
F-0.0011548529394898505
s(g1
S'listed'
p3207
tp3208
F-0.0005567042822477318
s(g1
S'hundreds'
p3209
tp3210
F-0.0012382686643746502
s(g8
S'comment:'
p3211
tp3212
F-0.0017480284121595257
s(g8
g2504
tp3213
F-0.0004726136890293556
s(g8
S'students!<br>'
p3214
tp3215
F0.0005603166503176598
s(g1
S'gid-$minmsgid))"'
p3216
tp3217
F-3.987900642075676e-05
s(g8
S'designed'
p3218
tp3219
F0.001113408564385992
s(g1
g3105
tp3220
F0.0006822392506960082
s(g1
g1241
tp3221
F0.000512492694989887
s(g8
g205
tp3222
F-0.0004726136890293556
s(g1
S'process'
p3223
tp3224
F-0.0005567042822477318
s(g8
g1196
tp3225
F-0.0017879074184001121
s(g8
S'newspaper.<br>'
p3226
tp3227
F0.0005603166503176598
s(g1
S'safety'
p3228
tp3229
F-0.002237654233377071
s(g8
S'in,<br>'
p3230
tp3231
F0.0005603166503176598
s(g8
S'get'
p3232
tp3233
F0.0017970199436814153
s(g1
S'$5.75'
p3234
tp3235
F-0.0005603166503732955
s(g1
g218
tp3236
F-0.0005567042822477318
s(g8
g2243
tp3237
F0.0006444072452149325
s(g8
g2540
tp3238
F-0.002640413306520601
s(g1
S'past'
p3239
tp3240
F-0.0012382686643746502
s(g8
g1223
tp3241
F0.0005567042822851042
s(g8
g1957
tp3242
F0.0005567042822851042
s(g8
g232
tp3243
F0.0012382686641795187
s(g8
g909
tp3244
F0.0016737252138999091
s(g8
g238
tp3245
F-0.0004726136890293556
s(g8
g1966
tp3246
F0.0012382686641795187
s(g8
S'300,000'
p3247
tp3248
F0.002241266601270639
s(g8
S'stuff'
p3249
tp3250
F-0.0004726136890293556
s(g8
g2553
tp3251
F0.0024765373283590375
s(g8
g2558
tp3252
F-0.0004726136890293556
s(g1
S'event)'
p3253
tp3254
F0.00047261368825425625
s(g1
S'financially'
p3255
tp3256
F-0.0012382686643746502
s(g8
g2883
tp3257
F0.001113408564385992
s(g8
S'dreams,'
p3258
tp3259
F0.0012382686641795187
s(g1
S'pickinner'
p3260
tp3261
F0.00047261368825425625
s(g8
S'"start'
p3262
tp3263
F0.0012382686641795187
s(g8
S'answers.'
p3264
tp3265
F0.0005603166503176598
s(g8
S'<cwg-dated-1030314468.7c7c85@deepeddy.com>,'
p3266
tp3267
F-0.0011056681679472657
s(g8
g2534
tp3268
F-0.0004726136890293556
s(g8
g1256
tp3269
F-0.0004726136890293556
s(g1
g3148
tp3270
F-0.0005603166503732955
s(g8
g2933
tp3271
F0.0005567042822851042
s(g1
g2893
tp3272
F0.0009452273765449016
s(g8
S'g7lfhjq23214'
p3273
tp3274
F-0.0006822392504639519
s(g8
S'(unverified'
p3275
tp3276
F0.0005603166503176598
s(g1
S'0}'
p3277
tp3278
F0.00047261368825425625
s(g8
S'sequence.'
p3279
tp3280
F-0.0006822392504639519
s(g1
g1994
tp3281
F-0.0012382686643746502
s(g8
g634
tp3282
F-0.0029206724491961204
s(g8
S'lis'
p3283
tp3284
F3.9879006244336607e-05
s(g8
S'yourself'
p3285
tp3286
F0.0034795352657851462
s(g8
S"'previous-sequence:"
p3287
tp3288
F-0.0011056681679472657
s(g8
S'("eval"'
p3289
tp3290
F-0.0004726136890293556
s(g1
g1267
tp3291
F-0.0005603166503732955
s(g8
S'17:27:47'
p3292
tp3293
F-0.0004726136890293556
s(g1
S')'
p3294
tp3295
F-0.0005567042822477318
s(g1
g1277
tp3296
F-0.0005603166503732955
s(g1
g2014
tp3297
F-0.0005567042822477318
s(g8
S'<b><font'
p3298
tp3299
F0.0011170209329615997
s(g8
S'wrong-doers'
p3300
tp3301
F-0.0006423602442156667
s(g1
g2017
tp3302
F0.00047261368825425625
s(g8
g970
tp3303
F0.0059416231232822265
s(g8
g1539
tp3304
F-0.0004726136890293556
s(g1
g2596
tp3305
F-0.0005567042822477318
s(g8
S'color="blue">'
p3306
tp3307
F0.0022304294951702814
s(g1
S'15:01:07'
p3308
tp3309
F0.00289357558607513
s(g8
S'slim'
p3310
tp3311
F0.0005603166503176598
s(g1
g2194
tp3312
F-0.001794972946623001
s(g1
g2032
tp3313
F0.00047261368825425625
s(g8
S'}"'
p3314
tp3315
F-0.0009452273780587113
s(g8
g1820
tp3316
F0.0005603166503176598
s(g1
g309
tp3317
F-0.0024765373287493004
s(g8
S'54f2043c36'
p3318
tp3319
F-0.0011056681679472657
s(g8
g975
tp3320
F3.9879006244336607e-05
s(g8
S'list-help:'
p3321
tp3322
F-0.0022605211074467595
s(g1
g2586
tp3323
F0.00047261368825425625
s(g8
g2945
tp3324
F0.0005603166503176598
s(g8
S'exmh'
p3325
tp3326
F-0.008801885627176107
s(g1
S'chance'
p3327
tp3328
F0.00038491072688673404
s(g1
g328
tp3329
F0.00400854951866865
s(g8
S'lugh.tuatha.org'
p3330
tp3331
F0.003714805993052755
s(g1
g3205
tp3332
F0.0011548529398975327
s(g1
g941
tp3333
F-0.001322359258001915
s(g8
g3209
tp3334
F0.0012382686641795187
s(g1
g1011
tp3335
F0.00047261368825425625
s(g1
S'now"'
p3336
tp3337
F-0.0012382686643746502
s(g1
S'localhost.localdomain'
p3338
tp3339
F0.0006423602445522268
s(g8
g2961
tp3340
F-0.0004726136890293556
s(g1
g1595
tp3341
F0.00047261368825425625
s(g1
S'625,000'
p3342
tp3343
F-0.0005603166503732955
s(g8
S'express'
p3344
tp3345
F0.0005603166503176598
s(g8
g414
tp3346
F-0.0004726136890293556
s(g1
g2976
tp3347
F0.00047261368825425625
s(g8
S'narrow'
p3348
tp3349
F-0.0004726136890293556
s(g8
g727
tp3350
F-0.0006822392504639519
s(g8
g2096
tp3351
F3.9879006244336607e-05
s(g8
g57
tp3352
F-0.0011056681679472657
s(g8
g2098
tp3353
F0.0005603166503176598
s(g1
g2989
tp3354
F0.00047261368825425625
s(g1
S'7725443c36'
p3355
tp3356
F-3.987900642075676e-05
s(g8
g151
tp3357
F0.0005567042822851042
s(g1
g438
tp3358
F-0.0012382686643746502
s(g1
g366
tp3359
F0.00047261368825425625
s(g8
S'("after"'
p3360
tp3361
F-0.0004726136890293556
s(g1
S'g4ga3qe29480'
p3362
tp3363
F-0.00027769787211492925
s(g8
g743
tp3364
F-0.0006822392504639519
s(g8
g2119
tp3365
F-0.0004726136890293556
s(g1
g3247
tp3366
F-0.002241266601493182
s(g8
S'bottles.'
p3367
tp3368
F0.0005567042822851042
s(g8
S'([10.1.2.1])'
p3369
tp3370
F-0.0006423602442156667
s(g1
g1364
tp3371
F-0.0012382686643746502
s(g8
g3253
tp3372
F-0.0004726136890293556
s(g1
g761
tp3373
F-0.0005567042822477318
s(g8
S'<kre@munnari.oz.au>'
p3374
tp3375
F-0.002902881351622375
s(g8
S'n-n'
p3376
tp3377
F-0.0004726136890293556
s(g8
g771
tp3378
F-0.0009452273780587113
s(g1
g2127
tp3379
F0.0010222524420174996
s(g1
g2150
tp3380
F-0.0012382686643746502
s(g8
g3277
tp3381
F-0.0004726136890293556
s(g8
g1081
tp3382
F0.0012382686641795187
s(g1
g3021
tp3383
F0.00047261368825425625
s(g8
g2800
tp3384
F-0.0022605211074467595
s(g1
S'19:30:01'
p3385
tp3386
F0.0009851063835813695
s(g1
g2702
tp3387
F0.00047261368825425625
s(g1
g2830
tp3388
F-0.0005567042822477318
s(g1
g324
tp3389
F0.0010222524420174996
s(g8
S'v4.1.60/v4218.'
p3390
tp3391
F-0.0006423602442156667
s(g1
g131
tp3392
F0.0011056681677741227
s(g8
g2176
tp3393
F0.0005567042822851042
s(g8
g3308
tp3394
F-0.002893575586332557
s(g8
g508
tp3395
F0.0007656549747190989
s(g8
S'01:58:00'
p3396
tp3397
F0.00027769787229649343
s(g1
g2232
tp3398
F0.00047261368825425625
s(g8
S'31'
p3399
tp3400
F0.00027769787229649343
s(g8
g829
tp3401
F-0.0006858900880752602
s(g8
g522
tp3402
F0.0011170209329615997
s(g1
g3318
tp3403
F0.0011056681677741227
s(g1
g979
tp3404
F-0.00027769787211492925
s(g1
g2982
tp3405
F-0.0012382686643746502
s(g8
g459
tp3406
F3.9879006244336607e-05
s(g8
g3062
tp3407
F0.0005567042822851042
s(g1
g2210
tp3408
F0.00047261368825425625
s(g1
g2318
tp3409
F0.007711780241144661
s(g8
g2751
tp3410
F0.00043478168203131085
s(g8
g540
tp3411
F0.0012382686641795187
s(g1
g380
tp3412
F-0.0012382686643746502
s(g1
S'garrigues'
p3413
tp3414
F0.004017855284111558
s(g8
S'o7+xfpsiqbz9hkffbmtyd1k='
p3415
tp3416
F-0.0006822392504639519
s(g1
g2761
tp3417
F0.0010222524420174996
s(g8
g2227
tp3418
F-0.0006423602442156667
s(g1
g1167
tp3419
F0.0010222524420174996
s(g1
g3086
tp3420
F-0.0005603166503732955
s(g8
g3342
tp3421
F0.0005603166503176598
s(g8
S'discussion'
p3422
tp3423
F-0.0022605211074467595
s(g1
g2238
tp3424
F-0.0012382686643746502
s(g8
S'list-id:'
p3425
tp3426
F-0.0010222524432002575
s(g1
S'08:30:55'
p3427
tp3428
F0.000512492694989887
s(g1
g1472
tp3429
F0.002260521105506265
s(g1
S'<jm@netnoteinc.com>;'
p3430
tp3431
F-0.0013947188047401787
s(g1
g2275
tp3432
F0.00047261368825425625
s(g1
S'latest'
p3433
tp3434
F0.00047261368825425625
s(g1
S'debt'
p3435
tp3436
F-0.001120633300746591
s(g1
g201
tp3437
F-0.0012382686643746502
s(g8
S'days,'
p3438
tp3439
F0.0005603166503176598
s(g8
g1488
tp3440
F-0.0004726136890293556
s(g1
g2677
tp3441
F0.00047261368825425625
s(g8
g1490
tp3442
F-0.0006423602442156667
s(g1
g2791
tp3443
F0.0014178410663581022
s(g8
g3362
tp3444
F0.00027769787229649343
s(g1
g1194
tp3445
F-0.0005603166503732955
s(g1
S'up'
p3446
tp3447
F-0.0031209445725421977
s(g8
S'columns'
p3448
tp3449
F-0.0004726136890293556
s(g8
S'___pen'
p3450
tp3451
F0.0005603166503176598
s(g8
g1304
tp3452
F-0.0004726136890293556
s(g1
g2277
tp3453
F0.0011056681677741227
s(g8
S'*****'
p3454
tp3455
F0.0005567042822851042
s(g8
g915
tp3456
F0.0012382686641795187
s(g1
g2805
tp3457
F-0.0006444072438924224
s(g1
g19
tp3458
F-0.0011134085644977764
s(g1
S'walk,<br>'
p3459
tp3460
F-0.0005603166503732955
s(g1
S'16:18:52'
p3461
tp3462
F-3.987900642075676e-05
s(g1
S't'
p3463
tp3464
F-3.987900642075676e-05
s(g1
g1384
tp3465
F0.00047261368825425625
s(g8
g2287
tp3466
F-0.0011056681679472657
s(g8
g234
tp3467
F-0.0006822392504639519
s(g8
S'(qmail-ldap-1.03)'
p3468
tp3469
F-0.0012847204884454807
s(g1
g3376
tp3470
F0.00047261368825425625
s(g1
S'state'
p3471
tp3472
F-0.0029156062473828146
s(g1
S'black,'
p3473
tp3474
F0.0009452273765449016
s(g8
S'productive'
p3475
tp3476
F-0.0004726136890293556
s(g8
S'mail'
p3477
tp3478
F-0.00038852309420957644
s(g1
S'08:30:52'
p3479
tp3480
F0.001024985389979774
s(g8
g1764
tp3481
F7.49620140245493e-05
s(g1
S'fraction'
p3482
tp3483
F0.00047261368825425625
s(g8
g2308
tp3484
F3.9879006244336607e-05
s(g8
g1250
tp3485
F0.0011170209329615997
s(g8
S'tried'
p3486
tp3487
F-0.0016274666285365676
s(g1
S'full'
p3488
tp3489
F0.00047261368825425625
s(g1
S'jun'
p3490
tp3491
F-0.0011170209326218485
s(g8
S'speeds'
p3492
tp3493
F0.0005567042822851042
s(g8
g2326
tp3494
F-0.0004726136890293556
s(g8
g3355
tp3495
F3.9879006244336607e-05
s(g1
g965
tp3496
F-0.0011170209326218485
s(g8
g1263
tp3497
F0.0005603166503176598
s(g1
g3160
tp3498
F-0.0005603166503732955
s(g1
S"pseq'"
p3499
tp3500
F0.0011056681677741227
s(g1
S'body'
p3501
tp3502
F0.0003044324997669218
s(g1
g572
tp3503
F-0.0012382686643746502
s(g8
S'"sticky"'
p3504
tp3505
F-0.0004726136890293556
s(g8
S'very'
p3506
tp3507
F-0.0016274666285365676
s(g8
g1537
tp3508
F0.012543088982142188
s(g1
g2891
tp3509
F0.0006423602445522268
s(g8
g510
tp3510
F-0.0004726136890293556
s(g1
g2341
tp3511
F-0.0005567042822477318
s(g1
g2857
tp3512
F0.0014178410663581022
s(g8
g660
tp3513
F0.0012382686641795187
s(g1
S'<a'
p3514
tp3515
F-0.005024788012742931
s(g1
g77
tp3516
F0.00047261368825425625
s(g8
g1290
tp3517
F-0.005568816930761167
s(g1
g17
tp3518
F-0.0005603166503732955
s(g8
g2638
tp3519
F0.0005567042822851042
s(g8
g2362
tp3520
F0.0005567042822851042
s(g8
S'1)'
p3521
tp3522
F-0.0018904547561304427
s(g1
S'complete'
p3523
tp3524
F-0.0005567042822477318
s(g8
S'world'
p3525
tp3526
F-0.0006423602442156667
s(g8
S'signature'
p3527
tp3528
F0.0011170209329615997
s(g8
g1017
tp3529
F-0.0006822392504639519
s(g1
g322
tp3530
F-0.003033241611004369
s(g8
g1019
tp3531
F-0.0022605211074467595
s(g8
S'screen,'
p3532
tp3533
F-0.0004726136890293556
s(g8
S'04:46:12'
p3534
tp3535
F0.0005603166503176598
s(g1
g3425
tp3536
F0.0010222524420174996
s(g1
S'<h3>'
p3537
tp3538
F-0.0005603166503732955
s(g1
S'"tkbuttonup"'
p3539
tp3540
F0.00047261368825425625
s(g8
g625
tp3541
F0.0005603166503176598
s(g1
g3064
tp3542
F-0.001120633300746591
s(g8
g2980
tp3543
F0.0005567042822851042
s(g8
g1325
tp3544
F-0.0004726136890293556
s(g1
S'2002'
p3545
tp3546
F0.01447570617516888
s(g8
g3216
tp3547
F3.9879006244336607e-05
s(g1
g709
tp3548
F-9.476849074704935e-05
s(g8
S'decode'
p3549
tp3550
F-0.0011056681679472657
s(g8
S'bar'
p3551
tp3552
F-0.0004726136890293556
s(g1
S'menu'
p3553
tp3554
F0.0018904547527506207
s(g1
S'address.<br>'
p3555
tp3556
F-0.0005603166503732955
s(g1
g2911
tp3557
F-0.0011170209326218485
s(g8
g1043
tp3558
F-0.0022605211074467595
s(g1
g2395
tp3559
F-0.0005603166503732955
s(g8
S'supply'
p3560
tp3561
F0.002783521405422842
s(g8
g71
tp3562
F-0.0004726136890293556
s(g1
g3230
tp3563
F-0.0005603166503732955
s(g8
g1340
tp3564
F-0.0055432946579175415
s(g8
g1451
tp3565
F0.0011206333006353196
s(g1
g3232
tp3566
F-0.001797019946887531
s(g8
S'($89.95)<br>'
p3567
tp3568
F0.0005603166503176598
s(g1
S'08:58:23'
p3569
tp3570
F-0.00027900641013420545
s(g1
g2928
tp3571
F0.00047261368825425625
s(g8
S'int-mx1.corp.redhat.com'
p3572
tp3573
F-0.0022605211074467595
s(g1
S'<exmh-workers.spamassassin.taint.org>'
p3574
tp3575
F0.002260521105506265
s(g8
g1711
tp3576
F-0.0004726136890293556
s(g1
g1904
tp3577
F0.0011056681677741227
s(g8
g2417
tp3578
F-0.0004726136890293556
s(g8
g1655
tp3579
F0.0005567042822851042
s(g1
g751
tp3580
F0.00047261368825425625
s(g1
g3477
tp3581
F0.00038852309426647944
s(g1
g684
tp3582
F-0.0012382686643746502
s(g8
S'iii:'
p3583
tp3584
F-0.0006423602442156667
s(g1
g391
tp3585
F-0.0012382686643746502
s(g8
g1092
tp3586
F0.0005567042822851042
s(g1
g2951
tp3587
F0.00047261368825425625
s(g8
S'mlm'
p3588
tp3589
F0.008667880648243545
s(g8
S'binding'
p3590
tp3591
F-0.0004726136890293556
s(g8
g1376
tp3592
F-0.0009452273780587113
s(g8
S'though'
p3593
tp3594
F-0.0006822392504639519
s(g1
g1380
tp3595
F-0.0011134085644977764
s(g1
g3275
tp3596
F-0.0005603166503732955
s(g8
g2999
tp3597
F0.0025058235335392023
s(g8
g1996
tp3598
F-0.01067776110219736
s(g1
g2441
tp3599
F-0.0022268171289992708
s(g8
g1114
tp3600
F0.001113408564385992
s(g8
g1390
tp3601
F-0.0004726136890293556
s(g1
g3287
tp3602
F0.0011056681677741227
s(g8
S'ratree.psu.ac.th'
p3603
tp3604
F-0.001024985390548468
s(g8
S'city,state,zip'
p3605
tp3606
F0.0011170209329615997
s(g8
g141
tp3607
F0.001113408564385992
s(g1
S'716'
p3608
tp3609
F0.0006423602445522268
s(g8
g3094
tp3610
F-0.0006423602442156667
s(g1
g1127
tp3611
F0.0006423602445522268
s(g1
g426
tp3612
F-0.002911993879258217
s(g1
g1411
tp3613
F-0.0012382686643746502
s(g1
g1415
tp3614
F0.000512492694989887
s(g8
g733
tp3615
F0.0005603166503176598
s(g8
S'</b>'
p3616
tp3617
F0.002794358512492266
s(g8
g2463
tp3618
F-0.0004726136890293556
s(g8
g3514
tp3619
F0.005024788013569889
s(g8
g1146
tp3620
F-0.0004726136890293556
s(g8
g823
tp3621
F-0.0006423602442156667
s(g1
g3314
tp3622
F0.0009452273765449016
s(g1
g169
tp3623
F0.002773013799997622
s(g8
S'using'
p3624
tp3625
F-0.0022605211074467595
s(g8
S'bad'
p3626
tp3627
F-0.0005489638858852967
s(g1
g1156
tp3628
F-0.0012382686643746502
s(g8
g749
tp3629
F0.0012382686641795187
s(g1
S'$busy(style)'
p3630
tp3631
F0.00047261368825425625
s(g8
g839
tp3632
F0.0005567042822851042
s(g1
g3521
tp3633
F0.0018904547527506207
s(g8
g2484
tp3634
F-0.0006822392504639519
s(g1
g3624
tp3635
F0.002260521105506265
s(g8
g449
tp3636
F0.0024765373283590375
s(g1
g3218
tp3637
F-0.0011134085644977764
s(g1
g179
tp3638
F-0.0005603166503732955
s(g1
g467
tp3639
F0.0006822392506960082
s(g8
S'manageable'
p3640
tp3641
F-0.0004726136890293556
s(g1
S'tv'
p3642
tp3643
F-0.0011134085644977764
s(g8
g3007
tp3644
F-0.0011056681679472657
s(g8
g3537
tp3645
F0.0005603166503176598
s(g8
S'(postfix)'
p3646
tp3647
F-0.0055432946579175415
s(g8
S'2.0.1'
p3648
tp3649
F-0.0022605211074467595
s(g8
g193
tp3650
F0.004482533199850402
s(g1
g785
tp3651
F-0.001120633300746591
s(g1
g481
tp3652
F0.00047261368825425625
s(g8
S'huge'
p3653
tp3654
F0.0012382686641795187
s(g1
g2509
tp3655
F0.00047261368825425625
s(g8
S'boundary="==_exmh_-195849857p";'
p3656
tp3657
F3.9879006244336607e-05
s(g1
g2514
tp3658
F-0.0012382686643746502
s(g1
g3285
tp3659
F-0.0034795352658638984
s(g1
g3549
tp3660
F0.0011056681677741227
s(g8
g796
tp3661
F0.001113408564385992
s(g1
S'-----begin'
p3662
tp3663
F0.0017480284108613404
s(g8
S'"mlm'
p3664
tp3665
F0.0012382686641795187
s(g8
g2588
tp3666
F0.0005603166503176598
s(g8
g2526
tp3667
F0.0005603166503176598
s(g8
g1203
tp3668
F0.0005567042822851042
s(g8
g496
tp3669
F0.0012382686641795187
s(g8
g2785
tp3670
F-0.0006822392504639519
s(g1
g1809
tp3671
F-0.0012382686643746502
s(g1
g1752
tp3672
F0.00047261368825425625
s(g8
g1486
tp3673
F-0.0004726136890293556
s(g1
g3132
tp3674
F-0.0005553957442298585
s(g1
S'2.2_20000822'
p3675
tp3676
F0.0006423602445522268
s(g1
g817
tp3677
F0.001627466628681053
s(g1
S'00:55:53'
p3678
tp3679
F-0.00027900641013420545
s(g8
g3488
tp3680
F-0.0004726136890293556
s(g1
g2959
tp3681
F-0.0005567042822477318
s(g1
g2546
tp3682
F-0.0005567042822477318
s(g1
g1229
tp3683
F-0.0005567042822477318
s(g8
S'$exmh(folder)"'
p3684
tp3685
F-0.0004726136890293556
s(g1
g242
tp3686
F0.0011056681677741227
s(g8
S'$54.95'
p3687
tp3688
F0.0005567042822851042
s(g8
S'again,'
p3689
tp3690
F0.0005603166503176598
s(g8
g837
tp3691
F0.0012382686641795187
s(g8
S'"msg_change'
p3692
tp3693
F-0.0004726136890293556
s(g8
g921
tp3694
F-0.0011056681679472657
s(g1
g2561
tp3695
F0.0010370968151476468
s(g8
g2012
tp3696
F0.0011170209329615997
s(g1
g3321
tp3697
F0.002260521105506265
s(g8
S'group'
p3698
tp3699
F0.0012382686641795187
s(g8
S'plan,'
p3700
tp3701
F0.0005567042822851042
s(g8
S'city,state,zip(as'
p3702
tp3703
F0.0011170209329615997
s(g8
g3081
tp3704
F-0.0011548529394898505
s(g1
g937
tp3705
F0.00047261368825425625
s(g8
S'billing'
p3706
tp3707
F0.0022340418631939503
s(g8
g1834
tp3708
F0.0005603166503176598
s(g8
S'contains'
p3709
tp3710
F8.409059333485612e-05
s(g1
g3698
tp3711
F-0.0012382686643746502
s(g8
g1508
tp3712
F-0.0004726136890293556
s(g8
g1800
tp3713
F0.003714805993052755
s(g1
g951
tp3714
F0.00047261368825425625
s(g8
g955
tp3715
F0.0005567042822851042
s(g1
g878
tp3716
F-0.0036812612230301056
s(g1
S'eat'
p3717
tp3718
F-0.0011134085644977764
s(g8
g1802
tp3719
F0.0005567042822851042
s(g1
g286
tp3720
F0.0006822392506960082
s(g8
S'fastest,'
p3721
tp3722
F0.0005567042822851042
s(g8
g292
tp3723
F-0.0004726136890293556
s(g1
g1029
tp3724
F-0.00027769787211492925
s(g1
S'betrayed,'
p3725
tp3726
F-0.0012382686643746502
s(g8
g1832
tp3727
F-0.0004726136890293556
s(g8
g1553
tp3728
F-0.0013644785009279039
s(g1
S'bottle,'
p3729
tp3730
F-0.0005567042822477318
s(g1
g1013
tp3731
F-0.00027769787211492925
s(g8
g989
tp3732
F0.0005603166503176598
s(g8
g917
tp3733
F0.0012382686641795187
s(g8
S'id8dbqe9y7azcc3lwbtt17arap/taj4gyhfoiqyvwy6cpyssxdmq5//o5gcfwoy/'
p3734
tp3735
F-0.0011056681679472657
s(g8
S'icondown'
p3736
tp3737
F-0.0004726136890293556
s(g1
g9
tp3738
F-0.0005603166503732955
s(g8
g3122
tp3739
F0.0004684472136476256
s(g1
S'includes:'
p3740
tp3741
F-0.0005567042822477318
s(g8
S'($59.95)<br>'
p3742
tp3743
F0.0011206333006353196
s(g1
g2622
tp3744
F-0.0005567042822477318
s(g8
S'burned,'
p3745
tp3746
F0.0012382686641795187
s(g1
S'choose'
p3747
tp3748
F-0.0005603166503732955
s(g1
g455
tp3749
F-0.00013260049645577896
s(g8
g33
tp3750
F-0.0009452273780587113
s(g1
g2339
tp3751
F-0.0022268171289992708
s(g8
S'cursor'
p3752
tp3753
F-0.0004726136890293556
s(g8
S'</center>'
p3754
tp3755
F0.0016737252138999091
s(g8
g340
tp3756
F0.0005603166503176598
s(g1
g1328
tp3757
F-0.001110791488459717
s(g1
g949
tp3758
F0.00047261368825425625
s(g8
S'notice'
p3759
tp3760
F-0.0004726136890293556
s(g8
g3150
tp3761
F-0.0004726136890293556
s(g8
g1879
tp3762
F0.0005603166503176598
s(g8
g3662
tp3763
F-0.0017480284121595257
s(g8
g646
tp3764
F-0.0017879074184001121
s(g8
g1601
tp3765
F0.0005567042822851042
s(g8
S'fat'
p3766
tp3767
F0.005567042829976164
s(g8
g2111
tp3768
F-0.0004726136890293556
s(g8
g1459
tp3769
F0.0016809499507868214
s(g8
S'3)'
p3770
tp3771
F-0.0018904547561304427
s(g1
S'unseen"'
p3772
tp3773
F0.00047261368825425625
s(g1
g1041
tp3774
F0.0010222524420174996
s(g1
g530
tp3775
F-0.0012382686643746502
s(g1
g1906
tp3776
F0.00047261368825425625
s(g8
g3678
tp3777
F0.00027900640994173886
s(g1
g2109
tp3778
F-0.0005567042822477318
s(g1
g3262
tp3779
F-0.0012382686643746502
s(g1
g3684
tp3780
F0.00047261368825425625
s(g1
g3448
tp3781
F0.00047261368825425625
s(g8
g2665
tp3782
F-0.0004726136890293556
s(g8
g1632
tp3783
F0.0005567042822851042
s(g8
g1057
tp3784
F0.0012382686641795187
s(g8
g993
tp3785
F-0.0004726136890293556
s(g1
S"we're"
p3786
tp3787
F-0.0005567042822477318
s(g8
S'big'
p3788
tp3789
F0.0012382686641795187
s(g8
g3186
tp3790
F0.0012382686641795187
s(g1
g3626
tp3791
F0.0005489638852835385
s(g1
g2620
tp3792
F0.00047261368825425625
s(g1
g1653
tp3793
F-0.0005603166503732955
s(g8
g3473
tp3794
F-0.0009452273780587113
s(g8
g95
tp3795
F-0.0004726136890293556
s(g8
g1926
tp3796
F0.0011170209329615997
s(g1
g1382
tp3797
F-3.987900642075676e-05
s(g1
g1665
tp3798
F-0.0007656549765917173
s(g8
S'will?'
p3799
tp3800
F0.0005603166503176598
s(g1
S'u.s.'
p3801
tp3802
F-0.001120633300746591
s(g1
g3184
tp3803
F0.0009452273765449016
s(g8
g119
tp3804
F-0.0006423602442156667
s(g8
g3207
tp3805
F0.0005567042822851042
s(g1
g1449
tp3806
F-3.987900642075676e-05
s(g1
g699
tp3807
F0.0006822392506960082
s(g8
S'775-257-6657.'
p3808
tp3809
F0.0005603166503176598
s(g1
g428
tp3810
F-0.001120633300746591
s(g1
g1684
tp3811
F0.00047261368825425625
s(g8
S'remove'
p3812
tp3813
F0.0005567042822851042
s(g8
g1035
tp3814
F0.0016701128458752417
s(g8
g707
tp3815
F0.0012382686641795187
s(g1
g399
tp3816
F-0.0011170209326218485
s(g1
S"doesn't"
p3817
tp3818
F-0.0007656549765917173
s(g1
g1119
tp3819
F-0.0016701128467466945
s(g1
g1323
tp3820
F0.000512492694989887
s(g8
S'{$flist(totalcount,$mhprofile(unseen-sequence))'
p3821
tp3822
F-0.0004726136890293556
s(g8
g147
tp3823
F0.00029304128575842524
s(g1
g1695
tp3824
F-0.0012382686643746502
s(g8
S'exmh-workers@spamassassin.taint.org'
p3825
tp3826
F-0.0056758951543796
s(g1
g1433
tp3827
F-0.002794358515632954
s(g1
g811
tp3828
F0.0006822392506960082
s(g1
g1152
tp3829
F-0.006153511315818192
s(g1
S'out).'
p3830
tp3831
F0.0006822392506960082
s(g1
S'spool'
p3832
tp3833
F0.00047261368825425625
s(g1
g1968
tp3834
F0.0008317584916114162
s(g1
g3734
tp3835
F0.0011056681677741227
s(g8
g1972
tp3836
F-0.0004726136890293556
s(g1
g483
tp3837
F0.0011056681677741227
s(g8
g2267
tp3838
F0.0012382686641795187
s(g8
g1154
tp3839
F-0.001060084451209303
s(g1
g2735
tp3840
F0.0006423602445522268
s(g8
g1160
tp3841
F-0.0004726136890293556
s(g8
S'this.'
p3842
tp3843
F0.0007656549747190989
s(g1
g1077
tp3844
F-0.0005603166503732955
s(g8
g177
tp3845
F0.0024765373283590375
s(g8
S'07:20:54'
p3846
tp3847
F0.00027769787229649343
s(g1
g109
tp3848
F0.002260521105506265
s(g1
g759
tp3849
F-0.0005567042822477318
s(g1
g1990
tp3850
F0.002260521105506265
s(g8
g763
tp3851
F0.0012382686641795187
s(g1
g3532
tp3852
F0.00047261368825425625
s(g1
g3266
tp3853
F0.0011056681677741227
s(g8
g487
tp3854
F0.0005567042822851042
s(g1
g187
tp3855
F0.002260521105506265
s(g1
g1102
tp3856
F0.0006423602445522268
s(g8
g189
tp3857
F0.0005603166503176598
s(g1
g3273
tp3858
F0.0006822392506960082
s(g8
g783
tp3859
F0.0005603166503176598
s(g1
S'kre'
p3860
tp3861
F0.00047261368825425625
s(g8
g2900
tp3862
F-0.0011056681679472657
s(g8
g3545
tp3863
F-0.014475706361919166
s(g1
g2142
tp3864
F0.00047261368825425625
s(g8
S'suite'
p3865
tp3866
F-0.0006423602442156667
s(g8
S'amazing'
p3867
tp3868
F0.00334022568698214
s(g1
S'here'
p3869
tp3870
F-0.0005567042822477318
s(g8
S'9e1f5441dd'
p3871
tp3872
F0.0012382686641795187
s(g8
S'agreed'
p3873
tp3874
F0.0012382686641795187
s(g8
S'cwg-exmh@deepeddy.com'
p3875
tp3876
F-0.0006423602442156667
s(g1
g1198
tp3877
F-0.0005603166503732955
s(g1
g3560
tp3878
F-0.002783521411237589
s(g1
g518
tp3879
F0.00047261368825425625
s(g8
S'22:50:11'
p3880
tp3881
F0.0012382686641795187
s(g1
g1319
tp3882
F0.0009452273765449016
s(g1
g1138
tp3883
F-0.0005567042822477318
s(g1
g3310
tp3884
F-0.0005603166503732955
s(g1
S'kinda'
p3885
tp3886
F0.0006822392506960082
s(g1
g1217
tp3887
F-0.0012382686643746502
s(g8
g2048
tp3888
F0.01634372409608325
s(g1
S'all'
p3889
tp3890
F0.0006893432231919083
s(g1
g3788
tp3891
F-0.0012382686643746502
s(g1
g1144
tp3892
F0.00047261368825425625
s(g1
g3572
tp3893
F0.002260521105506265
s(g8
S'without'
p3894
tp3895
F0.001113408564385992
s(g8
g3574
tp3896
F-0.0022605211074467595
s(g1
S'new,'
p3897
tp3898
F0.00047261368825425625
s(g8
g376
tp3899
F0.0005603166503176598
s(g8
g2495
tp3900
F0.0005567042822851042
s(g8
g588
tp3901
F-0.0009452273780587113
s(g1
g2041
tp3902
F-0.0005603166503732955
s(g1
g1237
tp3903
F0.0009452273765449016
s(g1
g253
tp3904
F-0.0005567042822477318
s(g1
g1522
tp3905
F0.00047261368825425625
s(g1
g3605
tp3906
F-0.0011170209326218485
s(g1
g3588
tp3907
F-0.008667880650622826
s(g1
g3330
tp3908
F-0.0037148059931212804
s(g8
S'then'
p3909
tp3910
F0.004007847281226812
s(g8
S'use'
p3911
tp3912
F0.0027317466066396085
s(g8
g3338
tp3913
F-0.0006423602442156667
s(g1
g1528
tp3914
F0.003245627486383215
s(g8
g867
tp3915
F-0.0009452273780587113
s(g1
g1794
tp3916
F0.00047261368825425625
s(g1
g2100
tp3917
F0.00047261368825425625
s(g8
g1798
tp3918
F-0.0007734338180381775
s(g1
g1190
tp3919
F-0.0011170209326218485
s(g1
S'hear'
p3920
tp3921
F-0.0005603166503732955
s(g8
S'colorization'
p3922
tp3923
F-0.0004726136890293556
s(g1
g876
tp3924
F-0.0005567042822477318
s(g8
S'was'
p3925
tp3926
F-0.0004726136890293556
s(g1
g3821
tp3927
F0.00047261368825425625
s(g1
g3348
tp3928
F0.00047261368825425625
s(g8
g1813
tp3929
F-0.008896123579662261
s(g8
g583
tp3930
F0.0012382686641795187
s(g8
g1215
tp3931
F0.0005567042822851042
s(g8
g294
tp3932
F0.0005603166503176598
s(g8
g2129
tp3933
F-0.0009452273780587113
s(g8
S'unsolicited.'
p3934
tp3935
F0.0012382686641795187
s(g1
S'x-url:'
p3936
tp3937
F0.0017480284108613404
s(g8
S'(i'
p3938
tp3939
F-0.0004726136890293556
s(g1
S'<8176.1029916867@munnari.oz.au>'
p3940
tp3941
F0.0035758148358255837
s(g1
g593
tp3942
F-0.0005603166503732955
s(g8
g913
tp3943
F0.0005567042822851042
s(g8
g2873
tp3944
F0.003033241609468969
s(g8
g597
tp3945
F-0.0004726136890293556
s(g1
g3369
tp3946
F0.0006423602445522268
s(g1
g2148
tp3947
F0.004521042213364226
s(g1
g307
tp3948
F0.008507046460930218
s(g1
g605
tp3949
F0.00047261368825425625
s(g1
g1854
tp3950
F0.0009388367155100966
s(g1
g607
tp3951
F-0.0005567042822477318
s(g8
g1585
tp3952
F-0.0004726136890293556
s(g1
S'through'
p3953
tp3954
F-0.004271510275381689
s(g1
g1860
tp3955
F0.00047261368825425625
s(g1
S'100'
p3956
tp3957
F-0.0005567042822477318
s(g1
S'0.83)'
p3958
tp3959
F-0.0005603166503732955
s(g8
g1261
tp3960
F0.003714805993052755
s(g1
g3648
tp3961
F0.002260521105506265
s(g8
g2631
tp3962
F-0.0004726136890293556
s(g8
g1718
tp3963
F0.0011170209329615997
s(g1
g629
tp3964
F-0.0013216843898362317
s(g1
S'$msgshowproc"'
p3965
tp3966
F0.0009452273765449016
s(g1
g1605
tp3967
F-0.0012382686643746502
s(g8
g191
tp3968
F-0.0018904547561304427
s(g8
g1610
tp3969
F-0.0004726136890293556
s(g8
g3385
tp3970
F-0.000985106384303279
s(g8
S'(mail.webnote.net'
p3971
tp3972
F0.00027769787229649343
s(g8
g3869
tp3973
F0.0005567042822851042
s(g8
g1726
tp3974
F-0.0006822392504639519
s(g1
S"body's"
p3975
tp3976
F-0.0011134085644977764
s(g1
g3664
tp3977
F-0.0012382686643746502
s(g1
S'know'
p3978
tp3979
F0.00047261368825425625
s(g8
g961
tp3980
F-0.002470146668864083
s(g8
g2186
tp3981
F-0.0006822392504639519
s(g1
g2917
tp3982
F0.00047261368825425625
s(g8
g967
tp3983
F0.0010064510959344845
s(g1
S'"ftoc_findmsgs'
p3984
tp3985
F0.00047261368825425625
s(g1
g2921
tp3986
F0.00047261368825425625
s(g8
g1627
tp3987
F0.0012382686641795187
s(g8
S'flaginner'
p3988
tp3989
F-0.0009452273780587113
s(g1
g2859
tp3990
F0.00047261368825425625
s(g1
g369
tp3991
F0.00047261368825425625
s(g8
g1353
tp3992
F-0.0011056681679472657
s(g8
g1768
tp3993
F0.0024765373283590375
s(g8
S'"busycursorinner"'
p3994
tp3995
F-0.0004726136890293556
s(g8
S'(easy'
p3996
tp3997
F-0.0004726136890293556
s(g1
g670
tp3998
F-0.0005567042822477318
s(g8
g3897
tp3999
F-0.0004726136890293556
s(g8
S'marketing'
p4000
tp4001
F0.0024765373283590375
s(g8
S'though.'
p4002
tp4003
F-0.0004726136890293556
s(g1
g2939
tp4004
F-0.0011134085644977764
s(g1
S'11:51:02'
p4005
tp4006
F-0.0012382686643746502
s(g8
S'$cmd"'
p4007
tp4008
F-0.0004726136890293556
s(g8
g1917
tp4009
F0.0005603166503176598
s(g8
g2401
tp4010
F0.0012382686641795187
s(g1
g1657
tp4011
F-3.987900642075676e-05
s(g1
g393
tp4012
F-0.0012382686643746502
s(g8
g2789
tp4013
F-0.0004726136890293556
s(g8
S'"ftoc_findmsgs"'
p4014
tp4015
F-0.0004726136890293556
s(g1
g3909
tp4016
F-0.004007847281534619
s(g1
g1924
tp4017
F0.004685129406572473
s(g1
g3706
tp4018
F-0.0022340418652529483
s(g8
g3143
tp4019
F-0.0004726136890293556
s(g8
S'sent'
p4020
tp4021
F0.0024765373283590375
s(g1
g2739
tp4022
F0.0006822392506960082
s(g8
g1688
tp4023
F0.0005603166503176598
s(g1
g3422
tp4024
F0.002260521105506265
s(g1
S'...)'
p4025
tp4026
F0.00047261368825425625
s(g8
g1395
tp4027
F0.033670933597023625
s(g8
g3427
tp4028
F-0.000512492695274234
s(g1
g2263
tp4029
F-0.0005603166503732955
s(g8
g422
tp4030
F0.0012382686641795187
s(g1
S'many,'
p4031
tp4032
F0.00047261368825425625
s(g1
g2984
tp4033
F-0.0005567042822477318
s(g1
g2310
tp4034
F0.00047261368825425625
s(g1
S'$15.95)'
p4035
tp4036
F-0.0005603166503732955
s(g1
g2986
tp4037
F0.00047261368825425625
s(g8
g882
tp4038
F0.0005603166503176598
s(g1
S'(fortunately'
p4039
tp4040
F0.0006822392506960082
s(g8
g1421
tp4041
F-0.0004726136890293556
s(g1
g395
tp4042
F0.003228615361356191
s(g1
S'additional'
p4043
tp4044
F0.00047261368825425625
s(g1
g3752
tp4045
F0.00047261368825425625
s(g1
S'$4.75'
p4046
tp4047
F-0.0016701128467466945
s(g8
g739
tp4048
F-0.0006822392504639519
s(g8
g3446
tp4049
F0.0031209445711431255
s(g8
g1708
tp4050
F0.0005567042822851042
s(g8
S'http://www.deepeddy.com/~cwg/chris.gif'
p4051
tp4052
F-0.0006423602442156667
s(g1
S'inches'
p4053
tp4054
F-0.0005567042822477318
s(g8
S'exmh-workers'
p4055
tp4056
F-0.0022206421012130164
s(g1
g457
tp4057
F-0.0012382686643746502
s(g8
g3463
tp4058
F3.9879006244336607e-05
s(g1
g1074
tp4059
F-0.0005567042822477318
s(g1
S'17:03:49'
p4060
tp4061
F-0.00027900641013420545
s(g1
g3745
tp4062
F-0.0012382686643746502
s(g8
g715
tp4063
F-0.0004726136890293556
s(g8
S'etc...'
p4064
tp4065
F-0.0004726136890293556
s(g8
g3889
tp4066
F-0.0006893432300922836
s(g8
g471
tp4067
F-0.0004726136890293556
s(g8
g1724
tp4068
F-0.0013644785009279039
s(g8
g1372
tp4069
F0.0012382686641795187
s(g8
S'<ilug@linux.ie>;'
p4070
tp4071
F0.0012382686641795187
s(g1
g3475
tp4072
F0.00047261368825425625
s(g8
g2322
tp4073
F0.0011170209329615997
s(g1
g3014
tp4074
F-0.0005567042822477318
s(g8
g801
tp4075
F-0.0006822392504639519
s(g8
g1988
tp4076
F0.0005567042822851042
s(g1
S'instead?'
p4077
tp4078
F0.00047261368825425625
s(g1
S'script)'
p4079
tp4080
F0.00047261368825425625
s(g1
g3754
tp4081
F-0.0016737252148785317
s(g8
g1094
tp4082
F0.0012382686641795187
s(g1
S'203.129.205.5.205.129.203.in-addr.arpa'
p4083
tp4084
F-0.001120633300746591
s(g8
S'<cwg-dated-1030375066.09929a@deepeddy.com>'
p4085
tp4086
F3.9879006244336607e-05
s(g8
g485
tp4087
F-0.0004726136890293556
s(g8
g813
tp4088
F-0.0006822392504639519
s(g8
g3490
tp4089
F0.0011170209329615997
s(g8
g3459
tp4090
F0.0005603166503176598
s(g1
g3808
tp4091
F-0.0005603166503732955
s(g8
g2879
tp4092
F-0.0004726136890293556
s(g1
g3766
tp4093
F-0.0055670428225072285
s(g1
g3871
tp4094
F-0.0012382686643746502
s(g1
g1111
tp4095
F0.001024985389979774
s(g8
S'merrimac'
p4096
tp4097
F0.0005603166503176598
s(g1
g3038
tp4098
F0.00047261368825425625
s(g1
S'address___________________________________________'
p4099
tp4100
F-0.0011170209326218485
s(g1
g3041
tp4101
F-0.0005603166503732955
s(g8
g1603
tp4102
F-0.0004726136890293556
s(g8
g3077
tp4103
F0.0019504277921438158
s(g1
g1426
tp4104
F0.0014178410663581022
s(g8
S'(because'
p4105
tp4106
F-0.0004726136890293556
s(g1
S'college!<br>'
p4107
tp4108
F-0.0005603166503732955
s(g8
S'heczndjhllrnag3s6ftpdw8='
p4109
tp4110
F3.9879006244336607e-05
s(g8
g3103
tp4111
F-0.0017480284121595257
s(g8
g4005
tp4112
F0.0012382686641795187
s(g8
S'opportunities.'
p4113
tp4114
F0.0012382686641795187
s(g8
g1442
tp4115
F-0.0006423602442156667
s(g8
S'2002,'
p4116
tp4117
F0.0005603166503176598
s(g1
S'visa,'
p4118
tp4119
F-0.0005603166503732955
s(g8
g3066
tp4120
F0.0005603166503176598
s(g8
S'updated'
p4121
tp4122
F-0.0004726136890293556
s(g1
g1510
tp4123
F-0.0005603166503732955
s(g1
g857
tp4124
F0.00047261368825425625
s(g1
S'sacred'
p4125
tp4126
F-0.0012382686643746502
s(g1
S'having'
p4127
tp4128
F0.0014178410663581022
s(g8
g1454
tp4129
F-0.0010222524432002575
s(g8
S'site,'
p4130
tp4131
F0.0005603166503176598
s(g8
g3523
tp4132
F0.0005567042822851042
s(g1
S'month_____'
p4133
tp4134
F-0.0011170209326218485
s(g1
g4109
tp4135
F-3.987900642075676e-05
s(g8
g538
tp4136
F-0.0004726136890293556
s(g1
g3084
tp4137
F0.0037809095101458854
s(g1
S'jails.'
p4138
tp4139
F-0.0005603166503732955
s(g1
g3799
tp4140
F-0.0005603166503732955
s(g1
g2063
tp4141
F0.0006822392506960082
s(g1
g1465
tp4142
F0.00047261368825425625
s(g8
g3090
tp4143
F-0.0045210422148566735
s(g1
g550
tp4144
F-0.0011170209326218485
s(g8
g3539
tp4145
F-0.0004726136890293556
s(g8
S'list-unsubscribe:'
p4146
tp4147
F-0.0022605211074467595
s(g8
g385
tp4148
F-0.0006822392504639519
s(g8
S'month'
p4149
tp4150
F0.002783521405422842
s(g1
S'v1.0.6'
p4151
tp4152
F0.0006423602445522268
s(g1
g3812
tp4153
F-0.0005567042822477318
s(g1
S'take'
p4154
tp4155
F-0.0011170209326218485
s(g1
g563
tp4156
F0.0011056681677741227
s(g1
g2085
tp4157
F-0.0005567042822477318
s(g8
g1187
tp4158
F0.001113408564385992
s(g1
g3770
tp4159
F0.0018904547527506207
s(g8
g4046
tp4160
F0.0016701128458752417
s(g8
g3740
tp4161
F0.0005567042822851042
s(g1
S'.pick.but.pick'
p4162
tp4163
F0.00047261368825425625
s(g1
g907
tp4164
F0.002260521105506265
s(g1
g1205
tp4165
F-0.0012382686643746502
s(g1
g1838
tp4166
F0.0017480284108613404
s(g8
g3170
tp4167
F0.0012382686641795187
s(g1
g1842
tp4168
F0.0006822392506960082
s(g1
g3567
tp4169
F-0.0005603166503732955
s(g8
S'46)'
p4170
tp4171
F-0.0004726136890293556
s(g8
g4107
tp4172
F0.0005603166503176598
s(g8
g939
tp4173
F0.001113408564385992
s(g8
g1231
tp4174
F-0.0016161138616438355
s(g8
S'earn'
p4175
tp4176
F0.0012382686641795187
s(g1
g2164
tp4177
F0.0006423602445522268
s(g8
g935
tp4178
F0.0005567042822851042
s(g8
g603
tp4179
F0.0012382686641795187
s(g1
g3583
tp4180
F0.0006423602445522268
s(g1
S'<9627.1029933001@munnari.oz.au>'
p4181
tp4182
F0.0004327346819052547
s(g8
g3139
tp4183
F0.0012382686641795187
s(g1
g2154
tp4184
F0.0012275907677755638
s(g1
g2443
tp4185
F-0.0033402256934974787
s(g1
S'purchase'
p4186
tp4187
F-0.0005567042822477318
s(g8
g2174
tp4188
F-0.0028536965801064912
s(g8
S'g7lfmss0008315;'
p4189
tp4190
F-0.0011056681679472657
s(g8
g1557
tp4191
F0.0005567042822851042
s(g1
S'my'
p4192
tp4193
F0.0028635224251625816
s(g1
g3162
tp4194
F-0.0005567042822477318
s(g8
g3155
tp4195
F0.0005567042822851042
s(g1
g4014
tp4196
F0.00047261368825425625
s(g8
g3940
tp4197
F-0.003575814836821612
s(g1
S'27481'
p4198
tp4199
F-3.987900642075676e-05
s(g8
S'question,'
p4200
tp4201
F0.0005603166503176598
s(g1
g171
tp4202
F0.00047261368825425625
s(g1
g3721
tp4203
F-0.0005567042822477318
s(g8
g1615
tp4204
F-0.0004726136890293556
s(g8
S'life-changing'
p4205
tp4206
F0.0012382686641795187
s(g1
g2941
tp4207
F-0.0005603166503732955
s(g8
g1545
tp4208
F0.0012382686641795187
s(g8
S'($49.95)<br>'
p4209
tp4210
F0.0011206333006353196
s(g1
g987
tp4211
F-0.0005567042822477318
s(g1
S'occor'
p4212
tp4213
F0.00047261368825425625
s(g8
S'(and'
p4214
tp4215
F-0.0004726136890293556
s(g1
g656
tp4216
F-0.0005567042822477318
s(g1
S'siddhi'
p4217
tp4218
F-0.0012382686643746502
s(g8
g3327
tp4219
F-0.00038491072844135143
s(g1
g3616
tp4220
F-0.002794358515632954
s(g8
g2478
tp4221
F-0.000509759747938973
s(g1
g1643
tp4222
F-0.00027769787211492925
s(g8
g4162
tp4223
F-0.0004726136890293556
s(g1
S'array'
p4224
tp4225
F0.00047261368825425625
s(g8
g3725
tp4226
F0.0012382686641795187
s(g1
S'13:33:03'
p4227
tp4228
F0.000512492694989887
s(g8
g1227
tp4229
F0.0005567042822851042
s(g8
S'1980'
p4230
tp4231
F0.0011170209329615997
s(g8
S'made'
p4232
tp4233
F-0.0009452273780587113
s(g8
g4125
tp4234
F0.0012382686641795187
s(g8
S'lugh'
p4235
tp4236
F0.0012382686641795187
s(g1
g2292
tp4237
F-0.0005567042822477318
s(g1
S'inhibits'
p4238
tp4239
F-0.0005567042822477318
s(g1
g1361
tp4240
F-0.0012382686643746502
s(g8
g3198
tp4241
F0.0012382686641795187
s(g8
S'substances'
p4242
tp4243
F0.0005567042822851042
s(g1
g1023
tp4244
F-0.0005567042822477318
s(g1
g2516
tp4245
F-0.0005567042822477318
s(g8
g2236
tp4246
F-0.0006423602442156667
s(g8
g2674
tp4247
F8.409059333485612e-05
s(g1
g1592
tp4248
F-0.0005603166503732955
s(g8
g693
tp4249
F0.0011170209329615997
s(g1
g3165
tp4250
F0.00047261368825425625
s(g8
g1317
tp4251
F-0.000512492695274234
s(g8
g2521
tp4252
F0.0011170209329615997
s(g1
g1939
tp4253
F-0.0005603166503732955
s(g1
g3525
tp4254
F0.0006423602445522268
s(g8
g2076
tp4255
F0.0012382686641795187
s(g1
g3656
tp4256
F-3.987900642075676e-05
s(g8
g2700
tp4257
F3.9879006244336607e-05
s(g8
S'invoke"'
p4258
tp4259
F-0.0004726136890293556
s(g1
S'same'
p4260
tp4261
F-0.0012382686643746502
s(g8
S'dreamed'
p4262
tp4263
F0.0012382686641795187
s(g1
g4113
tp4264
F-0.0012382686643746502
s(g1
g1702
tp4265
F-0.0005603166503732955
s(g1
g1336
tp4266
F0.0012847204879531842
s(g8
g3228
tp4267
F0.0022376542339560017
s(g1
g2271
tp4268
F0.002260521105506265
s(g1
S'appear'
p4269
tp4270
F0.00047261368825425625
s(g8
S'elz'
p4271
tp4272
F-0.004008549519564501
s(g8
S'(usa)'
p4273
tp4274
F0.0005603166503176598
s(g8
g3196
tp4275
F0.0005603166503176598
s(g8
g3471
tp4276
F0.0029156062481400626
s(g8
g1704
tp4277
F0.001113408564385992
s(g8
g1087
tp4278
F0.0005603166503176598
s(g1
g1066
tp4279
F0.000512492694989887
s(g8
S'show'
p4280
tp4281
F-0.0011548529394898505
s(g1
g1068
tp4282
F0.0011056681677741227
s(g1
g691
tp4283
F0.0017024446943974345
s(g1
g3249
tp4284
F0.00047261368825425625
s(g8
g1085
tp4285
F0.0012382686641795187
s(g1
g3258
tp4286
F-0.0012382686643746502
s(g1
S'signed'
p4287
tp4288
F-0.0024765373287493004
s(g1
g1998
tp4289
F-0.0005603166503732955
s(g1
g3700
tp4290
F-0.0005567042822477318
s(g1
g3938
tp4291
F0.00047261368825425625
s(g1
g3177
tp4292
F0.00047261368825425625
s(g8
g3675
tp4293
F-0.0006423602442156667
s(g1
S'cc:'
p4294
tp4295
F0.002260521105506265
s(g8
g1676
tp4296
F-0.0004726136890293556
s(g8
g1439
tp4297
F0.001113408564385992
s(g8
g3126
tp4298
F-0.0011056681679472657
s(g8
S'104);'
p4299
tp4300
F-0.0006423602442156667
s(g1
g3279
tp4301
F0.0006822392506960082
s(g1
g3055
tp4302
F0.0006822392506960082
s(g1
g3971
tp4303
F-0.00027769787211492925
s(g8
g911
tp4304
F0.0005603166503176598
s(g1
S'of'
p4305
tp4306
F-0.013852236913954695
s(g8
g4212
tp4307
F-0.0004726136890293556
s(g8
S'<1029943035.26707.tmda@deepeddy.vircio.com>'
p4308
tp4309
F-0.0006822392504639519
s(g1
S'caught,'
p4310
tp4311
F-0.0005603166503732955
s(g8
g3717
tp4312
F0.001113408564385992
s(g1
g2030
tp4313
F0.00047261368825425625
s(g8
g1406
tp4314
F0.0013216843890636975
s(g1
g3300
tp4315
F0.0006423602445522268
s(g8
S'<startnow2002@hotmail.com>'
p4316
tp4317
F0.0012382686641795187
s(g8
g1563
tp4318
F0.002241266601270639
s(g8
g1135
tp4319
F0.0005603166503176598
s(g1
g3988
tp4320
F0.0009452273765449016
s(g1
g4200
tp4321
F-0.0005603166503732955
s(g8
g815
tp4322
F0.005588717036687636
s(g1
g3283
tp4323
F-3.987900642075676e-05
s(g1
g1760
tp4324
F0.000512492694989887
s(g1
g3996
tp4325
F0.00047261368825425625
s(g1
g1150
tp4326
F0.0006822392506960082
s(g1
g2354
tp4327
F-3.987900642075676e-05
s(g1
g473
tp4328
F-0.0005603166503732955
s(g1
g833
tp4329
F-0.0005553957442298585
s(g1
g640
tp4330
F0.002260521105506265
s(g1
S'attributes'
p4331
tp4332
F0.00047261368825425625
s(g1
S'return'
p4333
tp4334
F-0.0005603166503732955
s(g1
g3736
tp4335
F0.00047261368825425625
s(g1
g4235
tp4336
F-0.0012382686643746502
s(g1
g1516
tp4337
F0.00047261368825425625
s(g8
g1720
tp4338
F-0.003834625169759808
s(g8
g3729
tp4339
F0.0005567042822851042
s(g1
g1171
tp4340
F0.0006822392506960082
s(g8
S'<body>'
p4341
tp4342
F0.0011170209329615997
s(g1
g4096
tp4343
F-0.0005603166503732955
s(g8
g2647
tp4344
F0.0011206333006353196
s(g8
g1179
tp4345
F0.004831826923796611
s(g1
g2383
tp4346
F-0.0012382686643746502
s(g1
g4020
tp4347
F-0.0024765373287493004
s(g8
S'check____'
p4348
tp4349
F0.0005603166503176598
s(g1
g3344
tp4350
F-0.0005603166503732955
s(g8
g2390
tp4351
F0.00027900640994173886
s(g8
g4260
tp4352
F0.0012382686641795187
s(g8
g3569
tp4353
F0.00027900640994173886
s(g1
g3759
tp4354
F0.00047261368825425625
s(g1
g4262
tp4355
F-0.0012382686643746502
s(g1
g1804
tp4356
F-0.0016737252148785317
s(g8
S'signature-----'
p4357
tp4358
F-0.003496056824273435
s(g1
g2115
tp4359
F0.0011056681677741227
s(g1
g1479
tp4360
F-0.00027900641013420545
s(g8
g1211
tp4361
F0.0011170209329615997
s(g1
g1467
tp4362
F0.00047261368825425625
s(g1
g4271
tp4363
F0.00400854951866865
s(g8
g554
tp4364
F0.0005603166503176598
s(g1
S'invoke]"'
p4365
tp4366
F0.00047261368825425625
s(g1
g899
tp4367
F-0.0022340418652529483
s(g1
S'differen'
p4368
tp4369
F-3.987900642075676e-05
s(g1
g1840
tp4370
F0.0022206420970882716
s(g1
g1235
tp4371
F-0.0022340418652529483
s(g1
S'follow'
p4372
tp4373
F-0.0012382686643746502
s(g8
g3786
tp4374
F0.0005567042822851042
s(g8
g1850
tp4375
F-0.0009452273780587113
s(g1
g1503
tp4376
F-0.0012382686643746502
s(g8
S'evil-doers.'
p4377
tp4378
F-0.0006423602442156667
s(g8
g2421
tp4379
F3.9879006244336607e-05
s(g1
g1005
tp4380
F-0.0012382686643746502
s(g8
g4060
tp4381
F0.00027900640994173886
s(g1
S'"ftoc_findmsg'
p4382
tp4383
F0.00047261368825425625
s(g1
g1776
tp4384
F-0.0024765373287493004
s(g1
S'done'
p4385
tp4386
F0.00047261368825425625
s(g8
g115
tp4387
F0.0005603166503176598
s(g1
g4214
tp4388
F0.00047261368825425625
s(g8
g4294
tp4389
F-0.0022605211074467595
s(g1
g2730
tp4390
F0.0033292253787040055
s(g1
g2435
tp4391
F0.002260521105506265
s(g8
S'$32.95'
p4392
tp4393
F0.0005567042822851042
s(g1
g4308
tp4394
F0.0006822392506960082
s(g8
g4310
tp4395
F0.0005603166503176598
s(g8
g1456
tp4396
F-0.0006423602442156667
s(g1
g2225
tp4397
F-0.0005567042822477318
s(g8
S'thu,'
p4398
tp4399
F0.0011107914891859737
s(g1
S'happens'
p4400
tp4401
F0.00047261368825425625
s(g8
g1279
tp4402
F-0.0004726136890293556
s(g8
g1641
tp4403
F0.0005567042822851042
s(g8
g149
tp4404
F-0.0004726136890293556
s(g1
g3390
tp4405
F0.0006423602445522268
s(g8
g1386
tp4406
F0.0011170209329615997
s(g8
g1898
tp4407
F0.001113408564385992
s(g1
g3875
tp4408
F0.0006423602445522268
s(g8
g1900
tp4409
F0.0011568999398364108
s(g8
g1826
tp4410
F-0.0004726136890293556
s(g8
S'"wed,'
p4411
tp4412
F-0.0011056681679472657
s(g8
g3146
tp4413
F-0.0028058726248672383
s(g1
g2741
tp4414
F-0.0011134085644977764
s(g8
g1547
tp4415
F0.0016737252138999091
s(g8
g284
tp4416
F0.0016809499507868214
s(g8
g3435
tp4417
F0.0011206333006353196
s(g1
g2531
tp4418
F-3.987900642075676e-05
s(g8
g3830
tp4419
F-0.0006822392504639519
s(g8
g4181
tp4420
F-0.0004327346827942991
s(g8
S'function'
p4421
tp4422
F-0.0004726136890293556
s(g1
S'number'
p4423
tp4424
F0.0006822392506960082
s(g1
g991
tp4425
F-0.0005567042822477318
s(g1
g1848
tp4426
F0.00047261368825425625
s(g1
g1567
tp4427
F-0.0005603166503732955
s(g8
g2491
tp4428
F0.0005603166503176598
s(g1
g4341
tp4429
F-0.0011170209326218485
s(g8
g1782
tp4430
F0.0005567042822851042
s(g1
g1862
tp4431
F-0.0012382686643746502
s(g8
g835
tp4432
F0.0012382686641795187
s(g1
g3846
tp4433
F-0.00027769787211492925
s(g8
S'"ftoc_findmsg"'
p4434
tp4435
F-0.0004726136890293556
s(g8
g2247
tp4436
F0.0024765373283590375
s(g8
S'decorations,'
p4437
tp4438
F-0.0004726136890293556
s(g8
g4138
tp4439
F0.0005603166503176598
s(g1
g1674
tp4440
F-0.0005603166503732955
s(g8
g2257
tp4441
F0.0020039236394853235
s(g1
g2787
tp4442
F-0.0037148059931212804
s(g8
g1888
tp4443
F0.0012382686641795187
s(g1
g4149
tp4444
F-0.002783521411237589
s(g1
g1607
tp4445
F0.0011056681677741227
s(g1
g3702
tp4446
F-0.0011170209326218485
s(g8
S'permission,'
p4447
tp4448
F0.0012382686641795187
s(g1
g3867
tp4449
F-0.0033402256934974787
s(g8
S'mistake'
p4450
tp4451
F0.0012382686641795187
s(g8
S'people.'
p4452
tp4453
F0.0012382686641795187
s(g8
g2807
tp4454
F-0.0004726136890293556
s(g1
g1351
tp4455
F0.0006423602445522268
s(g1
g1300
tp4456
F-0.0012382686643746502
s(g8
g2544
tp4457
F-0.0011056681679472657
s(g1
g512
tp4458
F-0.0005567042822477318
s(g1
g1625
tp4459
F-0.007661387849994958
s(g1
g3506
tp4460
F0.001627466628681053
s(g1
g2528
tp4461
F-0.0012382686643746502
s(g1
g2550
tp4462
F0.00047261368825425625
s(g1
g2839
tp4463
F0.0006822392506960082
s(g8
S'reply-to:'
p4464
tp4465
F-0.0006423602442156667
s(g1
g1970
tp4466
F-0.0005567042822477318
s(g8
g1912
tp4467
F0.0012382686641795187
s(g8
S'...'
p4468
tp4469
F-0.0027331347964976594
s(g1
g1419
tp4470
F-0.0008393230605099012
s(g1
g3894
tp4471
F-0.0011134085644977764
s(g1
g2304
tp4472
F0.00047261368825425625
s(g8
g1651
tp4473
F0.001643117943708956
s(g1
S'"flist(totalcount,unseen)":'
p4474
tp4475
F0.00047261368825425625
s(g8
S'charset=us-ascii'
p4476
tp4477
F-0.0022605211074467595
s(g8
g1659
tp4478
F-0.0004726136890293556
s(g8
S'inbox)'
p4479
tp4480
F-0.0004726136890293556
s(g8
g3501
tp4481
F-0.00030443250011697614
s(g8
g1388
tp4482
F0.0005603166503176598
s(g8
g2424
tp4483
F0.001146399228042252
s(g1
g4146
tp4484
F0.002260521105506265
s(g1
g276
tp4485
F-0.0005603166503732955
s(g8
g1098
tp4486
F-0.0004726136890293556
s(g8
g3956
tp4487
F0.0005567042822851042
s(g1
g4000
tp4488
F-0.0024765373287493004
s(g1
g2847
tp4489
F0.0011056681677741227
s(g8
g623
tp4490
F-0.001702444696091258
s(g8
g1413
tp4491
F0.0005567042822851042
s(g8
g1686
tp4492
F0.002195144105326639
s(g8
S'sincere'
p4493
tp4494
F0.0012382686641795187
s(g8
g3499
tp4495
F-0.0011056681679472657
s(g8
g3069
tp4496
F-0.0004726136890293556
s(g8
g3920
tp4497
F0.0005603166503176598
s(g1
g2025
tp4498
F0.001024985389979774
s(g8
S'line'
p4499
tp4500
F-0.010870114847529535
s(g8
S'ftp://cs.indiana.edu/pub/faces/index.html'
p4501
tp4502
F-0.0011056681679472657
s(g8
g1129
tp4503
F0.0005603166503176598
s(g1
g2609
tp4504
F-0.0012382686643746502
s(g8
S'ave.<br>'
p4505
tp4506
F0.0005603166503176598
s(g1
g4209
tp4507
F-0.001120633300746591
s(g8
g2875
tp4508
F-0.0004726136890293556
s(g1
g4421
tp4509
F0.00047261368825425625
s(g1
g2046
tp4510
F0.0014584223161614013
s(g1
S'bottom,'
p4511
tp4512
F0.0009452273765449016
s(g1
g565
tp4513
F0.003401288334505657
s(g1
g2966
tp4514
F0.00047261368825425625
s(g8
g4365
tp4515
F-0.0004726136890293556
s(g1
g2888
tp4516
F-0.0005603166503732955
s(g1
g1162
tp4517
F0.0006423602445522268
s(g1
S'<https://listman.spamassassin.taint.org/mailman/private/exmh-workers/>'
p4518
tp4519
F0.002260521105506265
s(g8
S'ec3c93f3eb'
p4520
tp4521
F-0.0006822392504639519
s(g1
g4392
tp4522
F-0.0005567042822477318
s(g8
g3430
tp4523
F0.0013947188046382053
s(g8
g2640
tp4524
F0.007811921819238162
s(g1
g2125
tp4525
F0.0006822392506960082
s(g8
g3953
tp4526
F0.004271510274490318
s(g8
g2078
tp4527
F0.0005580128198834777
s(g1
g2645
tp4528
F-0.0016701128467466945
s(g1
g2671
tp4529
F0.00047261368825425625
s(g1
S'wonder'
p4530
tp4531
F-0.0012382686643746502
s(g8
g2006
tp4532
F0.0012382686641795187
s(g8
g2871
tp4533
F-0.0004726136890293556
s(g1
g2393
tp4534
F0.0034960568240369684
s(g1
g3934
tp4535
F-0.0012382686643746502
s(g8
g2996
tp4536
F-0.0004726136890293556
s(g8
g1481
tp4537
F0.0005567042822851042
s(g8
g4217
tp4538
F0.0012382686641795187
s(g1
g4447
tp4539
F-0.0012382686643746502
s(g8
g3975
tp4540
F0.001113408564385992
s(g8
g3978
tp4541
F-0.0004726136890293556
s(g1
g2408
tp4542
F-0.0012382686643746502
s(g8
g4151
tp4543
F-0.0006423602442156667
s(g8
g1587
tp4544
F0.0016701128458752417
s(g8
g1209
tp4545
F0.0005603166503176598
s(g1
g2038
tp4546
F0.002260521105506265
s(g1
g1754
tp4547
F-0.0022340418652529483
s(g8
g326
tp4548
F-0.0004726136890293556
s(g1
g4468
tp4549
F0.002733134791726492
s(g1
g3590
tp4550
F0.00047261368825425625
s(g8
g2055
tp4551
F-0.003282773550568202
s(g1
g4280
tp4552
F0.0011548529398975327
s(g8
g2428
tp4553
F-0.0004726136890293556
s(g1
g4002
tp4554
F0.00047261368825425625
s(g1
S'security.'
p4555
tp4556
F-0.0005603166503732955
s(g1
g4007
tp4557
F0.00047261368825425625
s(g1
g2144
tp4558
F0.0025193314394162647
s(g8
g209
tp4559
F-0.0011056681679472657
s(g8
g755
tp4560
F-0.0004726136890293556
s(g1
g2685
tp4561
F-0.0005603166503732955
s(g8
g2070
tp4562
F0.0016737252138999091
s(g8
g1772
tp4563
F0.0012382686641795187
s(g8
g2697
tp4564
F0.0005603166503176598
s(g1
g117
tp4565
F-3.987900642075676e-05
s(g1
S'08:33:03'
p4566
tp4567
F0.000512492694989887
s(g1
g372
tp4568
F0.000512492694989887
s(g1
g3153
tp4569
F-0.0005567042822477318
s(g8
g2456
tp4570
F0.0012382686641795187
s(g1
S'weight.'
p4571
tp4572
F-0.0005567042822477318
s(g8
g4305
tp4573
F0.013852237095218224
s(g8
g2102
tp4574
F0.0012382686641795187
s(g1
g3226
tp4575
F-0.0005603166503732955
s(g8
g222
tp4576
F-0.0004726136890293556
s(g8
g1273
tp4577
F-0.0004726136890293556
s(g1
S'g7lfk4z30918'
p4578
tp4579
F-3.987900642075676e-05
s(g8
g2468
tp4580
F-0.0004726136890293556
s(g1
g2721
tp4581
F0.00047261368825425625
s(g1
g4316
tp4582
F-0.0012382686643746502
s(g1
g1551
tp4583
F-0.0005603166503732955
s(g1
g2726
tp4584
F0.00047261368825425625
s(g1
g1555
tp4585
F-0.0011170209326218485
s(g1
S'want'
p4586
tp4587
F-0.0005567042822477318
s(g1
S'since'
p4588
tp4589
F0.0009452273765449016
s(g8
S'ups,'
p4590
tp4591
F0.0005603166503176598
s(g8
g4043
tp4592
F-0.0004726136890293556
s(g1
g2203
tp4593
F0.0011149739328352025
s(g8
g1984
tp4594
F9.476848832598665e-05
s(g8
g3048
tp4595
F0.0005567042822851042
s(g1
g2131
tp4596
F-0.0012382686643746502
s(g8
S'today)'
p4597
tp4598
F0.0005567042822851042
s(g1
S'mastercard____'
p4599
tp4600
F-0.0005603166503732955
s(g8
g469
tp4601
F-0.0011056681679472657
s(g1
g2497
tp4602
F-0.0005603166503732955
s(g1
g4055
tp4603
F0.0022206420970882716
s(g1
g4501
tp4604
F0.0011056681677741227
s(g8
S'7'
p4605
tp4606
F0.0011206333006353196
s(g8
g3010
tp4607
F0.0005567042822851042
s(g1
g2221
tp4608
F-0.0005567042822477318
s(g1
g3653
tp4609
F-0.0012382686643746502
s(g8
g1582
tp4610
F0.0005567042822851042
s(g1
S'valdis'
p4611
tp4612
F0.0011056681677741227
s(g1
g3640
tp4613
F0.00047261368825425625
s(g8
g3026
tp4614
F-0.0004726136890293556
s(g8
g2769
tp4615
F0.0012382686641795187
s(g1
g4070
tp4616
F-0.0012382686643746502
s(g8
g4530
tp4617
F0.0012382686641795187
s(g8
g2241
tp4618
F-0.0017480284121595257
s(g8
S'etc).'
p4619
tp4620
F-0.0004726136890293556
s(g8
g4083
tp4621
F0.0011206333006353196
s(g8
g2255
tp4622
F0.0005603166503176598
s(g1
g1612
tp4623
F0.0006822392506960082
s(g1
g3043
tp4624
F-0.001120633300746591
s(g1
g4116
tp4625
F-0.0005603166503732955
s(g1
g1332
tp4626
F-0.0005567042822477318
s(g8
g2184
tp4627
F-0.0004726136890293556
s(g1
g1886
tp4628
F-0.0012382686643746502
s(g8
g2978
tp4629
F-0.0006423602442156667
s(g8
g2548
tp4630
F0.0005603166503176598
s(g1
g2797
tp4631
F-0.0011170209326218485
s(g1
g4452
tp4632
F-0.0012382686643746502
s(g1
g1636
tp4633
F0.0009452273765449016
s(g8
S'color="red">important'
p4634
tp4635
F0.0011170209329615997
s(g8
g757
tp4636
F0.0005567042822851042
s(g8
g4372
tp4637
F0.0012382686641795187
s(g1
g4170
tp4638
F0.00047261368825425625
s(g1
g3687
tp4639
F-0.0005567042822477318
s(g8
g3965
tp4640
F-0.0009452273780587113
s(g8
g4118
tp4641
F0.0005603166503176598
s(g8
g2298
tp4642
F-0.0011056681679472657
s(g1
g4205
tp4643
F-0.0012382686643746502
s(g1
S'(smtpd32-7.06'
p4644
tp4645
F-0.0012382686643746502
s(g8
S'matter'
p4646
tp4647
F0.0011206333006353196
s(g8
g1663
tp4648
F-0.0017480284121595257
s(g8
S'syntax'
p4649
tp4650
F-0.0004726136890293556
s(g1
g1667
tp4651
F0.00047261368825425625
s(g8
g2234
tp4652
F-0.0033263102690999583
s(g8
g4031
tp4653
F-0.0004726136890293556
s(g1
g3092
tp4654
F0.000512492694989887
s(g8
g2316
tp4655
F-0.0045210422148566735
s(g1
g3096
tp4656
F0.002260521105506265
s(g1
g4130
tp4657
F-0.0005603166503732955
s(g1
g1064
tp4658
F-0.0005603166503732955
s(g8
g1037
tp4659
F0.00027769787229649343
s(g1
S'<exmh-workers-admin@spamassassin.taint.org>'
p4660
tp4661
F0.002260521105506265
s(g8
g1682
tp4662
F0.0012382686641795187
s(g1
g1933
tp4663
F0.0011056681677741227
s(g1
g3709
tp4664
F-8.409059392236924e-05
s(g1
g3264
tp4665
F-0.0005603166503732955
s(g1
g2594
tp4666
F0.00047261368825425625
s(g1
S'cur"'
p4667
tp4668
F0.00047261368825425625
s(g1
g3107
tp4669
F-0.00514603574449786
s(g1
g1401
tp4670
F0.00047261368825425625
s(g8
g2845
tp4671
F-0.0004726136890293556
s(g8
g4400
tp4672
F-0.0004726136890293556
s(g8
S'references:'
p4673
tp4674
F-0.0022605211074467595
s(g8
g4667
tp4675
F-0.0004726136890293556
s(g1
g378
tp4676
F0.00461941175879217
s(g8
g2612
tp4677
F0.0022340418631939503
s(g1
g4464
tp4678
F0.0006423602445522268
s(g8
g4586
tp4679
F0.0005567042822851042
s(g1
g2162
tp4680
F0.0009452273765449016
s(g1
S'p.s.'
p4681
tp4682
F-0.0012382686643746502
s(g1
S'<html>'
p4683
tp4684
F-0.0011170209326218485
s(g1
g590
tp4685
F-0.001120633300746591
s(g1
g3468
tp4686
F0.0012847204879531842
s(g1
g2350
tp4687
F0.0005104456933492053
s(g1
g4520
tp4688
F0.0006822392506960082
s(g1
g3129
tp4689
F0.000512492694989887
s(g8
g4599
tp4690
F0.0005603166503176598
s(g1
g27
tp4691
F0.00047261368825425625
s(g1
g31
tp4692
F0.0006822392506960082
s(g1
g3135
tp4693
F-0.0005567042822477318
s(g8
S"isn't"
p4694
tp4695
F-0.0004726136890293556
s(g8
g2374
tp4696
F0.0022340418631939503
s(g1
g2885
tp4697
F-0.001120633300746591
s(g8
g1722
tp4698
F0.0005567042822851042
s(g8
S'previously'
p4699
tp4700
F-0.0004726136890293556
s(g8
g613
tp4701
F0.0005603166503176598
s(g1
g2314
tp4702
F-0.00027769787211492925
s(g8
g4511
tp4703
F-0.0009452273780587113
s(g8
g2057
tp4704
F0.0005567042822851042
s(g8
g87
tp4705
F0.0005603166503176598
s(g1
g2957
tp4706
F0.0007292111535352721
s(g1
g2897
tp4707
F0.0006822392506960082
s(g8
S'words'
p4708
tp4709
F0.0012382686641795187
s(g8
g4053
tp4710
F0.0005567042822851042
s(g1
g1735
tp4711
F-0.0005567042822477318
s(g8
g4079
tp4712
F-0.0004726136890293556
s(g1
g638
tp4713
F-0.0011170209326218485
s(g1
g1469
tp4714
F-0.0005567042822477318
s(g8
g3194
tp4715
F-0.0010222524432002575
s(g1
g4434
tp4716
F0.00047261368825425625
s(g1
S'bothered'
p4717
tp4718
F0.0006822392506960082
s(g8
g1476
tp4719
F-0.0022605211074467595
s(g1
g4377
tp4720
F0.0006423602445522268
s(g8
g3772
tp4721
F-0.0004726136890293556
s(g1
g3179
tp4722
F-0.0005603166503732955
s(g8
g2290
tp4723
F-0.0004726136890293556
s(g1
g4634
tp4724
F-0.0011170209326218485
s(g1
g4450
tp4725
F-0.0012382686643746502
s(g1
g342
tp4726
F-0.0012382686643746502
s(g1
g2403
tp4727
F-0.0033510627978591435
s(g8
g3482
tp4728
F-0.0004726136890293556
s(g1
g3842
tp4729
F-0.0007656549765917173
s(g1
g2087
tp4730
F-0.002794358515632954
s(g1
g1758
tp4731
F0.0011056681677741227
s(g8
g1492
tp4732
F0.00027900640994173886
s(g8
g668
tp4733
F0.0011206333006353196
s(g1
g2679
tp4734
F-0.0011170209326218485
s(g8
g1048
tp4735
F0.0012382686641795187
s(g1
S'picture'
p4736
tp4737
F0.0011056681677741227
s(g8
S'11:22:27'
p4738
tp4739
F-0.0011056681679472657
s(g8
g2366
tp4740
F-0.0010222524432002575
s(g8
g2053
tp4741
F0.0011206333006353196
s(g1
g4646
tp4742
F-0.001120633300746591
s(g1
g686
tp4743
F-0.0005603166503732955
s(g1
g2692
tp4744
F0.0014178410663581022
s(g1
g2948
tp4745
F0.008690901623883581
s(g8
S'"sequences'
p4746
tp4747
F-0.0009452273780587113
s(g8
g4474
tp4748
F-0.0004726136890293556
s(g8
g255
tp4749
F-0.0004726136890293556
s(g8
S'[127.0.0.1])'
p4750
tp4751
F-0.003662665747926548
s(g8
g1514
tp4752
F0.0005603166503176598
s(g8
g2687
tp4753
F-0.0004726136890293556
s(g8
g1852
tp4754
F-0.0010222524432002575
s(g1
g2704
tp4755
F0.00047261368825425625
s(g1
g3211
tp4756
F0.0017480284108613404
s(g8
g4660
tp4757
F-0.0022605211074467595
s(g1
S'27316'
p4758
tp4759
F0.0006822392506960082
s(g1
g713
tp4760
F-0.00861417979637092
s(g1
S'exmh-workers-admin@redhat.com'
p4761
tp4762
F0.0017480284108613404
s(g8
g1816
tp4763
F-0.0004726136890293556
s(g8
g4611
tp4764
F-0.0011056681679472657
s(g8
g3234
tp4765
F0.0005603166503176598
s(g1
g1623
tp4766
F-0.0005603166503732955
s(g1
g3399
tp4767
F-0.00027769787211492925
s(g8
g3555
tp4768
F0.0005603166503176598
s(g1
g3031
tp4769
F0.00047261368825425625
s(g1
g272
tp4770
F-9.476849074704935e-05
s(g1
g3825
tp4771
F0.005675895152844558
s(g1
g747
tp4772
F0.0006822392506960082
s(g1
g2749
tp4773
F-0.0005567042822477318
s(g8
g4025
tp4774
F-0.0004726136890293556
s(g8
S'nice'
p4775
tp4776
F-0.0009452273780587113
s(g1
g2133
tp4777
F0.0009452273765449016
s(g1
g765
tp4778
F-0.0005603166503732955
s(g8
g2765
tp4779
F0.0005567042822851042
s(g1
g4699
tp4780
F0.00047261368825425625
s(g1
g4230
tp4781
F-0.0011170209326218485
s(g1
g185
tp4782
F0.000512492694989887
s(g8
g1576
tp4783
F3.9879006244336607e-05
s(g1
g2432
tp4784
F-0.0012382686643746502
s(g1
g2776
tp4785
F-0.0012382686643746502
s(g1
g2778
tp4786
F-0.0016701128467466945
s(g1
g3019
tp4787
F-0.0006407948755275018
s(g8
S'someone'
p4788
tp4789
F0.0024765373283590375
s(g8
g2446
tp4790
F0.0022340418631939503
s(g8
g2160
tp4791
F-0.0017879074184001121
s(g1
g2406
tp4792
F-0.0005603166503732955
s(g1
g203
tp4793
F0.0017879074179261993
s(g1
g2482
tp4794
F0.00047261368825425625
s(g8
g4717
tp4795
F-0.0006822392504639519
s(g1
g2794
tp4796
F0.00047261368825425625
s(g1
g2756
tp4797
F-3.987900642075676e-05
s(g8
S'explicitly'
p4798
tp4799
F0.0012382686641795187
s(g1
g4499
tp4800
F0.010870114814286777
s(g1
g1895
tp4801
F0.00047261368825425625
s(g8
g4186
tp4802
F0.0005567042822851042
s(g8
g215
tp4803
F0.0011170209329615997
s(g8
g4198
tp4804
F3.9879006244336607e-05
s(g1
g3873
tp4805
F-0.0012382686643746502
s(g1
g2466
tp4806
F0.0006822392506960082
s(g8
g230
tp4807
F-0.0017480284121595257
s(g1
S'(credit'
p4808
tp4809
F-0.0011170209326218485
s(g8
g2330
tp4810
F0.0012382686641795187
s(g8
g2191
tp4811
F0.0012382686641795187
s(g1
g827
tp4812
F0.0011056681677741227
s(g1
g3880
tp4813
F-0.0012382686643746502
s(g1
g4357
tp4814
F0.0034960568240369684
s(g8
g1634
tp4815
F-0.0043676555762100465
s(g8
g1844
tp4816
F0.0011170209329615997
s(g1
g777
tp4817
F0.00047261368825425625
s(g1
g2461
tp4818
F0.004700094534883157
s(g1
g2555
tp4819
F0.0006822392506960082
s(g8
g1647
tp4820
F-0.0004726136890293556
s(g1
g3925
tp4821
F0.00047261368825425625
s(g8
g847
tp4822
F-0.0006822392504639519
s(g8
g2213
tp4823
F-0.0004726136890293556
s(g1
g851
tp4824
F0.00047261368825425625
s(g1
g3551
tp4825
F0.00047261368825425625
s(g8
g3071
tp4826
F0.0005603166503176598
s(g1
g4750
tp4827
F0.003662665748416623
s(g8
g4555
tp4828
F0.0005603166503176598
s(g8
g4333
tp4829
F0.0005603166503176598
s(g8
g3958
tp4830
F0.0005603166503176598
s(g8
g1549
tp4831
F0.0011170209329615997
s(g1
S'bonus!'
p4832
tp4833
F-0.0005567042822477318
s(g1
S'flist'
p4834
tp4835
F0.00047261368825425625
s(g1
g1928
tp4836
F-0.0005603166503732955
s(g8
g1661
tp4837
F-0.0004726136890293556
s(g1
g863
tp4838
F0.001124799775656097
s(g1
g165
tp4839
F0.00047261368825425625
s(g8
g2833
tp4840
F-0.0006822392504639519
s(g1
g2123
tp4841
F0.0017480284108613404
s(g8
S'more'
p4842
tp4843
F0.0014642204038064026
s(g1
S'yet'
p4844
tp4845
F-0.0012382686643746502
s(g8
S'pompton'
p4846
tp4847
F0.0005567042822851042
s(g1
g3911
tp4848
F-0.0027317466111270836
s(g8
g4269
tp4849
F-0.0004726136890293556
s(g1
S'ago'
p4850
tp4851
F0.0011056681677741227
s(g8
g4571
tp4852
F0.0005567042822851042
s(g8
g4736
tp4853
F-0.0011056681679472657
s(g1
g1942
tp4854
F-0.0016773375829980354
s(g8
g893
tp4855
F0.0030368539790230735
s(g1
S'{4852'
p4856
tp4857
F0.00047261368825425625
s(g1
g2537
tp4858
F-3.987900642075676e-05
s(g1
g1745
tp4859
F0.0011056681677741227
s(g1
S'processing).'
p4860
tp4861
F0.00047261368825425625
s(g1
g3360
tp4862
F0.00047261368825425625
s(g1
g3289
tp4863
F0.00047261368825425625
s(g1
g849
tp4864
F0.00047261368825425625
s(g1
g3111
tp4865
F-0.0005603166503732955
s(g8
g2008
tp4866
F-0.0022605211074467595
s(g1
g3367
tp4867
F-0.0005567042822477318
s(g8
g4368
tp4868
F3.9879006244336607e-05
s(g8
g2718
tp4869
F-0.0006822392504639519
s(g1
g4437
tp4870
F0.00047261368825425625
s(g8
g3124
tp4871
F0.0022340418631939503
s(g8
g1975
tp4872
F0.0012382686641795187
s(g1
g4597
tp4873
F-0.0005567042822477318
s(g1
g4348
tp4874
F-0.0005603166503732955
s(g1
g2633
tp4875
F-7.975801284151352e-05
s(g8
g334
tp4876
F0.0005603166503176598
s(g1
S'"boost"'
p4877
tp4878
F-0.0005567042822477318
s(g8
g944
tp4879
F-0.0006822392504639519
s(g1
g1946
tp4880
F-0.0005603166503732955
s(g8
g4385
tp4881
F-0.0004726136890293556
s(g1
g1392
tp4882
F-0.0011170209326218485
s(g8
g4238
tp4883
F0.0005567042822851042
s(g8
g348
tp4884
F0.021460296681435256
s(g1
g4619
tp4885
F0.00047261368825425625
s(g1
g352
tp4886
F-0.0016737252148785317
s(g8
g2923
tp4887
F0.0005567042822851042
s(g1
g4788
tp4888
F-0.0024765373287493004
s(g1
g4064
tp4889
F0.00047261368825425625
s(g1
S'on'
p4890
tp4891
F-0.006104783640393802
s(g8
g3336
tp4892
F0.0012382686641795187
s(g1
g364
tp4893
F0.00047261368825425625
s(g8
g1743
tp4894
F0.0011170209329615997
s(g8
S'adding'
p4895
tp4896
F-0.0004726136890293556
s(g1
g2602
tp4897
F0.0017480284108613404
s(g1
g3865
tp4898
F0.0006423602445522268
s(g1
g981
tp4899
F0.0006423602445522268
s(g1
g4398
tp4900
F-0.001110791488459717
s(g1
g2931
tp4901
F-0.0022340418652529483
s(g8
g3984
tp4902
F-0.0004726136890293556
s(g1
g2034
tp4903
F-0.0030475318754417057
s(g1
g2617
tp4904
F0.0009452273765449016
s(g8
S'16:23:55'
p4905
tp4906
F-0.0022113363358945313
s(g8
g2279
tp4907
F0.00013260049610862185
s(g1
g998
tp4908
F0.00038491072688673404
s(g1
g4411
tp4909
F0.0011056681677741227
s(g1
g3603
tp4910
F0.001024985389979774
s(g8
g2061
tp4911
F-0.0028536965801064912
s(g1
g97
tp4912
F-0.0005567042822477318
s(g8
g4224
tp4913
F-0.0004726136890293556
s(g1
g1733
tp4914
F0.0006822392506960082
s(g1
g3994
tp4915
F0.00047261368825425625
s(g8
g2364
tp4916
F0.0016701128458752417
s(g1
g397
tp4917
F-0.0005603166503732955
s(g8
g4423
tp4918
F-0.0006822392504639519
s(g8
g2937
tp4919
F0.0005567042822851042
s(g8
g2683
tp4920
F-0.0004726136890293556
s(g1
g3415
tp4921
F0.0006822392506960082
s(g8
g4834
tp4922
F-0.0004726136890293556
s(g1
g1892
tp4923
F-0.001120633300746591
s(g8
g4644
tp4924
F0.0012382686641795187
s(g8
g405
tp4925
F-0.0004726136890293556
s(g1
g4649
tp4926
F0.00047261368825425625
s(g8
g3747
tp4927
F0.0005603166503176598
s(g8
g2964
tp4928
F0.001113408564385992
s(g8
g49
tp4929
F0.0012382686641795187
s(g1
g3534
tp4930
F-0.0005603166503732955
s(g1
g4846
tp4931
F-0.0005567042822477318
s(g8
g358
tp4932
F0.0005567042822851042
s(g8
g1347
tp4933
F-0.0006822392504639519
s(g8
g2386
tp4934
F-0.0013337504709141884
s(g1
g3689
tp4935
F-0.0005603166503732955
s(g1
g1437
tp4936
F-0.0005567042822477318
s(g1
g2178
tp4937
F0.0010222524420174996
s(g8
g4856
tp4938
F-0.0004726136890293556
s(g8
g3801
tp4939
F0.0011206333006353196
s(g1
g4189
tp4940
F0.0011056681677741227
s(g1
S'better).'
p4941
tp4942
F0.00047261368825425625
s(g1
g1046
tp4943
F0.00047261368825425625
s(g8
g2397
tp4944
F-0.000512492695274234
s(g8
g4035
tp4945
F0.0005603166503176598
s(g1
g73
tp4946
F0.00047261368825425625
s(g8
g4681
tp4947
F0.0012382686641795187
s(g1
g2669
tp4948
F0.00047261368825425625
s(g8
g452
tp4949
F-0.0022605211074467595
s(g8
S'(on'
p4950
tp4951
F-0.0004726136890293556
s(g8
g2662
tp4952
F-0.003496056824273435
s(g8
g3461
tp4953
F3.9879006244336607e-05
s(g8
g4287
tp4954
F0.0024765373283590375
s(g8
g2747
tp4955
F0.0012382686641795187
s(g8
S'--==_exmh_-195849857p--'
p4956
tp4957
F3.9879006244336607e-05
s(g8
g4099
tp4958
F0.0011170209329615997
s(g8
g4844
tp4959
F0.0012382686641795187
s(g8
S'("cursor"'
p4960
tp4961
F-0.0004726136890293556
s(g8
g2905
tp4962
F-0.0017480284121595257
s(g8
g3936
tp4963
F-0.0017480284121595257
s(g1
g4105
tp4964
F0.00047261368825425625
s(g8
g3255
tp4965
F0.0012382686641795187
s(g8
g4578
tp4966
F3.9879006244336607e-05
s(g1
S'on.'
p4967
tp4968
F-0.0005567042822477318
s(g8
g2158
tp4969
F0.0005567042822851042
s(g8
g2426
tp4970
F-0.005885520715745949
s(g8
S'24'
p4971
tp4972
F0.004585719094794513
s(g1
g4476
tp4973
F0.002260521105506265
s(g1
g3492
tp4974
F-0.0005567042822477318
s(g8
g4133
tp4975
F0.0011170209329615997
s(g1
g2166
tp4976
F0.00047261368825425625
s(g1
g4479
tp4977
F0.00047261368825425625
s(g1
g2170
tp4978
F-0.0005603166503732955
s(g1
g4708
tp4979
F-0.0012382686643746502
s(g1
g1866
tp4980
F-0.0012382686643746502
s(g8
g2439
tp4981
F0.0012382686641795187
s(g8
g502
tp4982
F0.0005603166503176598
s(g8
g1621
tp4983
F0.0005603166503176598
s(g1
g3504
tp4984
F0.00047261368825425625
s(g8
g4860
tp4985
F-0.0004726136890293556
s(g1
g4895
tp4986
F0.00047261368825425625
s(g1
g2324
tp4987
F0.0006822392506960082
s(g1
S'(best'
p4988
tp4989
F0.00047261368825425625
s(g8
g2188
tp4990
F0.0012382686641795187
s(g8
g3024
tp4991
F0.0012382686641795187
s(g1
g3052
tp4992
F-0.0012382686643746502
s(g1
g1133
tp4993
F0.00047261368825425625
s(g1
g4493
tp4994
F-0.0012382686643746502
s(g8
g2802
tp4995
F8.77029611148478e-05
s(g1
g3306
tp4996
F-0.0022304294971148644
s(g1
g4905
tp4997
F0.0022113363355482454
s(g1
g798
tp4998
F-0.0005603166503732955
s(g1
g1908
tp4999
F-0.0016766627139574433
s(g8
g3413
tp5000
F-0.004017855284899324
s(g1
g4085
tp5001
F-3.987900642075676e-05
s(g1
g4960
tp5002
F0.00047261368825425625
s(g8
g173
tp5003
F3.9879006244336607e-05
s(g8
g4683
tp5004
F0.0011170209329615997
s(g8
g2758
tp5005
F-0.0017480284121595257
s(g1
g1914
tp5006
F-0.0012382686643746502
s(g8
g3860
tp5007
F-0.0004726136890293556
s(g1
g3527
tp5008
F-0.0011170209326218485
s(g1
g4121
tp5009
F0.00047261368825425625
s(g1
g3325
tp5010
F0.008801885662513725
s(g1
g2229
tp5011
F-0.0005567042822477318
s(g1
g4746
tp5012
F0.0009452273765449016
s(g8
g3433
tp5013
F-0.0004726136890293556
s(g8
g2954
tp5014
F0.0012382686641795187
s(g8
g546
tp5015
F-0.0011056681679472657
s(g8
g4127
tp5016
F-0.0014178410670673788
s(g1
g548
tp5017
F-0.0011170209326218485
s(g8
g1921
tp5018
F0.004468083732598751
s(g8
g526
tp5019
F-0.0020467177513919673
s(g8
g2636
tp5020
F-0.0009452273780587113
s(g8
g4518
tp5021
F-0.0022605211074467595
s(g8
g3098
tp5022
F-0.0025694409768722603
s(g8
g2471
tp5023
F-0.0009452273780587113
s(g8
g2252
tp5024
F0.0012382686641795187
s(g8
g4758
tp5025
F-0.0006822392504639519
s(g8
g4877
tp5026
F0.0005567042822851042
s(g1
g4232
tp5027
F0.0009452273765449016
s(g1
g3292
tp5028
F0.00047261368825425625
s(g8
g3553
tp5029
F-0.0018904547561304427
s(g8
g4941
tp5030
F-0.0004726136890293556
s(g8
g4761
tp5031
F-0.0017480284121595257
s(g1
g207
tp5032
F0.00047261368825425625
s(g8
g4154
tp5033
F0.0011170209329615997
s(g1
g1207
tp5034
F-3.987900642075676e-05
s(g1
g2855
tp5035
F-0.0011170209326218485
s(g8
g3832
tp5036
F-0.0004726136890293556
s(g1
g4950
tp5037
F0.00047261368825425625
s(g1
g4605
tp5038
F-0.001120633300746591
s(g1
g2285
tp5039
F-0.0005603166503732955
s(g1
g1954
tp5040
F0.000512492694989887
s(g1
g4798
tp5041
F-0.0012382686643746502
s(g1
g1233
tp5042
F0.00047261368825425625
s(g8
g2180
tp5043
F0.0012382686641795187
s(g1
g2877
tp5044
F0.00047261368825425625
s(g8
g2328
tp5045
F-0.0006423602442156667
s(g1
g2300
tp5046
F-0.0005567042822477318
s(g1
g4738
tp5047
F0.0011056681677741227
s(g1
g4775
tp5048
F0.0009452273765449016
s(g1
g4175
tp5049
F-0.0012382686643746502
s(g8
g259
tp5050
F-0.0004726136890293556
s(g1
g3374
tp5051
F0.0029028813505630295
s(g1
g4971
tp5052
F-0.004585719094120324
s(g8
g2281
tp5053
F-0.0020508955460223173
s(g1
g2826
tp5054
F-0.0005567042822477318
s(g1
g2828
tp5055
F0.0011056681677741227
s(g1
g3742
tp5056
F-0.001120633300746591
s(g1
g3593
tp5057
F0.0006822392506960082
s(g8
g2269
tp5058
F0.0011206333006353196
s(g8
g2681
tp5059
F0.0016701128458752417
s(g1
g2003
tp5060
F0.002260521105506265
s(g8
g4566
tp5061
F-0.000512492695274234
s(g8
g794
tp5062
F0.0016737252138999091
s(g8
g2582
tp5063
F-0.002279652721242763
s(g8
g3608
tp5064
F-0.0006423602442156667
s(g8
g4988
tp5065
F-0.0004726136890293556
s(g8
g2568
tp5066
F-0.0004726136890293556
s(g8
g2592
tp5067
F-0.0004726136890293556
s(g8
g650
tp5068
F0.0005603166503176598
s(g1
g4258
tp5069
F0.00047261368825425625
s(g1
g2022
tp5070
F0.00047261368825425625
s(g8
g4039
tp5071
F-0.0006822392504639519
s(g1
g3454
tp5072
F-0.0005567042822477318
s(g1
g3396
tp5073
F-0.00027769787211492925
s(g8
g4808
tp5074
F0.0011170209329615997
s(g1
g1292
tp5075
F0.00047261368825425625
s(g1
g4956
tp5076
F-3.987900642075676e-05
s(g8
g3117
tp5077
F-0.0022206421012130164
s(g1
g672
tp5078
F0.002260521105506265
s(g8
g3630
tp5079
F-0.0004726136890293556
s(g1
g4590
tp5080
F-0.0005603166503732955
s(g1
g4242
tp5081
F-0.0005567042822477318
s(g1
g288
tp5082
F0.00047261368825425625
s(g1
g3922
tp5083
F0.00047261368825425625
s(g8
g1397
tp5084
F0.0012382686641795187
s(g8
g4227
tp5085
F-0.000512492695274234
s(g1
g1298
tp5086
F-0.0037148059931212804
s(g8
g3642
tp5087
F0.001113408564385992
s(g1
g3438
tp5088
F-0.0005603166503732955
s(g8
g4588
tp5089
F-0.0009452273780587113
s(g8
g4832
tp5090
F0.0005567042822851042
s(g8
g697
tp5091
F8.341572428582066e-05
s(g1
g3214
tp5092
F-0.0005603166503732955
s(g1
g4842
tp5093
F-0.0014642204144128357
s(g8
g3885
tp5094
F-0.0006822392504639519
s(g1
g717
tp5095
F0.0009452273765449016
s(g1
g2814
tp5096
F0.00047261368825425625
s(g8
g3223
tp5097
F0.0005567042822851042
s(g1
g2972
tp5098
F-0.0005567042822477318
s(g1
g2651
tp5099
F0.0006822392506960082
s(g8
g4850
tp5100
F-0.0011056681679472657
s(g8
g1177
tp5101
F-0.0004726136890293556
s(g1
g4051
tp5102
F0.0006423602445522268
s(g1
g2925
tp5103
F0.0027060078382519816
s(g1
g63
tp5104
F0.0006822392506960082
s(g8
g731
tp5105
F0.0012382686641795187
s(g8
g3239
tp5106
F0.0012382686641795187
s(g1
g374
tp5107
F-3.987900642075676e-05
s(g1
g3450
tp5108
F-0.0005603166503732955
s(g1
g4299
tp5109
F0.0006423602445522268
s(g1
g1358
tp5110
F0.000512492694989887
s(g1
g2121
tp5111
F0.0006822392506960082
s(g1
g2667
tp5112
F-0.0005567042822477318
s(g1
g4273
tp5113
F-0.0005603166503732955
s(g1
g4505
tp5114
F-0.0005603166503732955
s(g8
g3002
tp5115
F-0.0011056681679472657
s(g1
g3692
tp5116
F0.00047261368825425625
s(g1
g2915
tp5117
F-0.0011170209326218485
s(g1
g3646
tp5118
F0.005543294657515343
s(g8
g387
tp5119
F-0.000512492695274234
s(g8
g3260
tp5120
F-0.0004726136890293556
s(g8
g2574
tp5121
F-0.000512492695274234
s(g8
g2138
tp5122
F-0.0004726136890293556
s(g8
g1090
tp5123
F0.0016737252138999091
s(g8
g4382
tp5124
F-0.0004726136890293556
s(g8
g4077
tp5125
F-0.0004726136890293556
s(g8
g4331
tp5126
F-0.0004726136890293556
s(g8
g3479
tp5127
F-0.001024985390548468
s(g8
g4967
tp5128
F0.0005567042822851042
s(g1
g781
tp5129
F-0.0012382686643746502
s(g1
g2689
tp5130
F-0.0005567042822477318
s(g8
g2694
tp5131
F-0.0004726136890293556
s(g1
g4694
tp5132
F0.00047261368825425625
s(g1
g3486
tp5133
F0.001627466628681053
s(g1
g2843
tp5134
F-0.0016809499511218808
s(g1
g412
tp5135
F0.0006822392506960082
s(g8
g4192
tp5136
F-0.002863522427437051
s(g1
g3119
tp5137
F-0.0012382686643746502
s(g8
g2450
tp5138
F-0.0022605211074467595
s(g1
g1403
tp5139
F0.000512492694989887
s(g8
g3294
tp5140
F0.0005567042822851042
s(g1
g3036
tp5141
F-0.0011170209326218485
s(g1
g3298
tp5142
F-0.0011170209326218485
s(g1
g2716
tp5143
F-0.0011170209326218485
s(g8
g4890
tp5144
F0.006104783664950618
s(g8
g2991
tp5145
F0.0012382686641795187
s(g8
g3817
tp5146
F0.0007656549747190989
s(g8
g1580
tp5147
F0.00422951177388545
s(g1
g2182
tp5148
F0.00047261368825425625
s(g8
g678
tp5149
F0.0005567042822851042
s(g1
g1428
tp5150
F-0.0005567042822477318
s(g1
g4673
tp5151
F0.002260521105506265
s(g8
g445
tp5152
F0.0011206333006353196
s(g1
g1937
tp5153
F0.0011056681677741227
s.